libdnf.so.2 libdnf2 #MINVER#
* Build-Depends-Package: libdnf-dev
 HY_FORMS_MOST_SPEC@Base 0.35.3
 HY_MODULE_FORMS_MOST_SPEC@Base 0.35.3
 _Z10is_packagePK5_PoolPK9_Solvable@Base 0.35.3
 _Z10mkcachedirPc@Base 0.35.3
 _Z10str2archidP5_PoolPKc@Base 0.35.3
 _Z11checksum_fpPhP8_IO_FILE@Base 0.35.3
 _Z12checksum_cmpPKhS0_@Base 0.35.3
 _Z12repo_by_nameP8_DnfSackPKc@Base 0.35.3
 _Z13checksum_readPhP8_IO_FILE@Base 0.35.3
 _Z13checksum_statPhP8_IO_FILE@Base 0.35.3
 _Z13checksumt_l2hi@Base 0.35.3
 _Z13hrepo_by_nameP8_DnfSackPKc@Base 0.35.3
 _Z13this_usernamev@Base 0.35.3
 _Z13what_upgradesP5_Pooli@Base 0.35.3
 _Z14checksum_writePKhP8_IO_FILE@Base 0.35.3
 _Z14free_map_fullyP4_Map@Base 0.35.3
 _Z14pool_get_epochP5_PoolPKc@Base 0.35.3
 _Z14pool_split_evrP5_PoolPKcPPcS4_S4_@Base 0.35.3
 _Z14running_kernelP8_DnfSack@Base 0.35.3
 _Z15is_readable_rpmPKc@Base 0.35.3
 _Z15read_whole_filePKc@Base 0.35.3
 _Z15what_downgradesP5_Pooli@Base 0.35.3
 _Z16dnf_advisory_newP8_DnfSacki@Base 0.35.3
 _Z17dnf_sack_get_archP8_DnfSack@Base 0.35.3
 _Z17pool_checksum_strP5_PoolPKh@Base 0.35.3
 _Z17repo_get_repodataPN6libdnf4RepoE17_hy_repo_repodata@Base 0.35.3
 _Z17repo_set_repodataPN6libdnf4RepoE17_hy_repo_repodatai@Base 0.35.3
 _Z17repo_update_statePN6libdnf4RepoE17_hy_repo_repodata14_hy_repo_state@Base 0.35.3
 _Z18hy_is_glob_patternPKc@Base 0.35.3
 _Z18hy_packagelist_hasP10_GPtrArrayP11_DnfPackage@Base 0.35.3
 _Z19dnf_advisoryref_newP8_DnfSackii@Base 0.35.3
 _Z20dnf_package_get_poolP11_DnfPackage@Base 0.35.3
 _Z20dnf_package_get_sackP11_DnfPackage@Base 0.35.3
 _Z20dnf_packagedelta_newP5_Pool@Base 0.35.3
 _Z20hy_query_to_selectorPN6libdnf5QueryE@Base 0.35.3
 _Z20packageSet2GPtrArrayPN6libdnf10PackageSetE@Base 0.35.3
 _Z20wrapNewlineChunksizePK15libscols_columnPKcPv@Base 0.35.3
 _Z20wrapNewlineNextchunkPK15libscols_columnPcPv@Base 0.35.3
 _Z21hy_packagelist_createv@Base 0.35.3
 _Z22dnf_sack_last_solvableP8_DnfSack@Base 0.35.3
 _Z23dnf_sack_running_kernelP8_DnfSack@Base 0.35.3
 _Z24dnf_sack_get_installonlyP8_DnfSack@Base 0.35.3
 _Z24repo_internalize_triggerP5_Repo@Base 0.35.3
 _Z24requiresModuleEnablementP8_DnfSackPKN6libdnf10PackageSetE@Base 0.35.3
 _Z26dnf_package_get_changelogsP11_DnfPackage@Base 0.35.3
 _Z26dnf_sack_filter_modules_v2B5cxx11P8_DnfSackPN6libdnf22ModulePackageContainerEPPKcS5_S5_bb@Base 0.35.3
 _Z26dnf_sack_get_pkg_solvablesP8_DnfSack@Base 0.35.3
 _Z26dnf_sack_get_rpmdb_versionB5cxx11P8_DnfSack@Base 0.35.3
 _Z26dnf_sack_set_pkg_solvablesP8_DnfSackP4_Mapi@Base 0.35.3
 _Z28dnf_sack_get_pool_nsolvablesP8_DnfSack@Base 0.35.3
 _Z28dnf_sack_make_provides_readyP8_DnfSack@Base 0.35.3
 _Z28repo_internalize_all_triggerP5_Pool@Base 0.35.3
 _Z29dnf_sack_get_module_containerP8_DnfSack@Base 0.35.3
 _Z29dnf_sack_recompute_consideredP8_DnfSack@Base 0.35.3
 _Z29dnf_sack_set_module_containerP8_DnfSackPN6libdnf22ModulePackageContainerE@Base 0.35.3
 _Z2mvPKcS0_PP7_GError@Base 0.35.3
 _Z30dnf_sack_set_running_kernel_fnP8_DnfSackPFiS0_E@Base 0.35.3
 _Z31dnf_rpmts_add_install_filename2P7rpmts_sPKciiP11_DnfPackagePP7_GError@Base 0.35.3
 _Z31dnf_sack_set_provides_not_readyP8_DnfSack@Base 0.35.3
 _Z33dnf_sack_set_considered_to_updateP8_DnfSack@Base 0.35.3
 _Z34dnf_sack_add_cmdline_package_flagsP8_DnfSackPKci@Base 0.35.3
 _Z5mtimePKc@Base 0.35.3
 _Z7abspathPKc@Base 0.35.3
 _Z8id2nevraP5_Pooli@Base 0.35.3
 _ZN10tinyformat6detail10formatImplERSoPKcPKNS0_9FormatArgEi@Base 0.35.3
 _ZN10tinyformat6detail15formatTruncatedI10PluginModeEEvRSoRKT_i@Base 0.35.3
 _ZN10tinyformat6detail15formatTruncatedI12PluginHookIdEEvRSoRKT_i@Base 0.35.3
 _ZN10tinyformat6detail15formatTruncatedINSt7__cxx1112basic_stringIcSt11char_traitsIcESaIcEEEEEvRSoRKT_i@Base 0.35.3
 _ZN10tinyformat6detail15formatTruncatedIfEEvRSoRKT_i@Base 0.35.3
 _ZN10tinyformat6detail15formatTruncatedIiEEvRSoRKT_i@Base 0.35.3
 _ZN10tinyformat6detail15formatTruncatedIjEEvRSoRKT_i@Base 0.35.3
 _ZN10tinyformat6detail15formatTruncatedIlEEvRSoRKT_i@Base 0.35.3
 _ZN10tinyformat6detail15formatTruncatedImEEvRSoRKT_i@Base 0.35.3
 _ZN10tinyformat6detail21streamStateFromFormatERSoRbS2_RiPKcPKNS0_9FormatArgES3_i@Base 0.35.3
 _ZN10tinyformat6detail9FormatArg10formatImplI10PluginModeEEvRSoPKcS6_iPKv@Base 0.35.3
 _ZN10tinyformat6detail9FormatArg10formatImplI12PluginHookIdEEvRSoPKcS6_iPKv@Base 0.35.3
 _ZN10tinyformat6detail9FormatArg10formatImplIA1024_cEEvRSoPKcS6_iPKv@Base 0.35.3
 _ZN10tinyformat6detail9FormatArg10formatImplIA11_cEEvRSoPKcS6_iPKv@Base 0.35.3
 _ZN10tinyformat6detail9FormatArg10formatImplIA13_cEEvRSoPKcS6_iPKv@Base 0.35.3
 _ZN10tinyformat6detail9FormatArg10formatImplIA14_cEEvRSoPKcS6_iPKv@Base 0.35.3
 _ZN10tinyformat6detail9FormatArg10formatImplIA15_cEEvRSoPKcS6_iPKv@Base 0.35.3
 _ZN10tinyformat6detail9FormatArg10formatImplIA17_cEEvRSoPKcS6_iPKv@Base 0.35.3
 _ZN10tinyformat6detail9FormatArg10formatImplIA18_cEEvRSoPKcS6_iPKv@Base 0.35.3
 _ZN10tinyformat6detail9FormatArg10formatImplIA256_cEEvRSoPKcS6_iPKv@Base 0.35.3
 _ZN10tinyformat6detail9FormatArg10formatImplIA30_cEEvRSoPKcS6_iPKv@Base 0.35.3
 _ZN10tinyformat6detail9FormatArg10formatImplIA31_cEEvRSoPKcS6_iPKv@Base 0.35.3
 _ZN10tinyformat6detail9FormatArg10formatImplIA37_cEEvRSoPKcS6_iPKv@Base 0.35.3
 _ZN10tinyformat6detail9FormatArg10formatImplIA9_cEEvRSoPKcS6_iPKv@Base 0.35.3
 _ZN10tinyformat6detail9FormatArg10formatImplINSt7__cxx1112basic_stringIcSt11char_traitsIcESaIcEEEEEvRSoPKcSB_iPKv@Base 0.35.3
 _ZN10tinyformat6detail9FormatArg10formatImplIPKcEEvRSoS4_S4_iPKv@Base 0.35.3
 _ZN10tinyformat6detail9FormatArg10formatImplIPcEEvRSoPKcS6_iPKv@Base 0.35.3
 _ZN10tinyformat6detail9FormatArg10formatImplIcEEvRSoPKcS5_iPKv@Base 0.35.3
 _ZN10tinyformat6detail9FormatArg10formatImplIfEEvRSoPKcS5_iPKv@Base 0.35.3
 _ZN10tinyformat6detail9FormatArg10formatImplIiEEvRSoPKcS5_iPKv@Base 0.35.3
 _ZN10tinyformat6detail9FormatArg10formatImplIjEEvRSoPKcS5_iPKv@Base 0.35.3
 _ZN10tinyformat6detail9FormatArg10formatImplIlEEvRSoPKcS5_iPKv@Base 0.35.3
 _ZN10tinyformat6detail9FormatArg10formatImplImEEvRSoPKcS5_iPKv@Base 0.35.3
 _ZN10tinyformat6detail9FormatArg9toIntImplI10PluginModeEEiPKv@Base 0.35.3
 _ZN10tinyformat6detail9FormatArg9toIntImplI12PluginHookIdEEiPKv@Base 0.35.3
 _ZN10tinyformat6detail9FormatArg9toIntImplIA1024_cEEiPKv@Base 0.35.3
 _ZN10tinyformat6detail9FormatArg9toIntImplIA11_cEEiPKv@Base 0.35.3
 _ZN10tinyformat6detail9FormatArg9toIntImplIA13_cEEiPKv@Base 0.35.3
 _ZN10tinyformat6detail9FormatArg9toIntImplIA14_cEEiPKv@Base 0.35.3
 _ZN10tinyformat6detail9FormatArg9toIntImplIA15_cEEiPKv@Base 0.35.3
 _ZN10tinyformat6detail9FormatArg9toIntImplIA17_cEEiPKv@Base 0.35.3
 _ZN10tinyformat6detail9FormatArg9toIntImplIA18_cEEiPKv@Base 0.35.3
 _ZN10tinyformat6detail9FormatArg9toIntImplIA256_cEEiPKv@Base 0.35.3
 _ZN10tinyformat6detail9FormatArg9toIntImplIA30_cEEiPKv@Base 0.35.3
 _ZN10tinyformat6detail9FormatArg9toIntImplIA31_cEEiPKv@Base 0.35.3
 _ZN10tinyformat6detail9FormatArg9toIntImplIA37_cEEiPKv@Base 0.35.3
 _ZN10tinyformat6detail9FormatArg9toIntImplIA9_cEEiPKv@Base 0.35.3
 _ZN10tinyformat6detail9FormatArg9toIntImplINSt7__cxx1112basic_stringIcSt11char_traitsIcESaIcEEEEEiPKv@Base 0.35.3
 _ZN10tinyformat6detail9FormatArg9toIntImplIPKcEEiPKv@Base 0.35.3
 _ZN10tinyformat6detail9FormatArg9toIntImplIPcEEiPKv@Base 0.35.3
 _ZN10tinyformat6detail9FormatArg9toIntImplIcEEiPKv@Base 0.35.3
 _ZN10tinyformat6detail9FormatArg9toIntImplIfEEiPKv@Base 0.35.3
 _ZN10tinyformat6detail9FormatArg9toIntImplIiEEiPKv@Base 0.35.3
 _ZN10tinyformat6detail9FormatArg9toIntImplIjEEiPKv@Base 0.35.3
 _ZN10tinyformat6detail9FormatArg9toIntImplIlEEiPKv@Base 0.35.3
 _ZN10tinyformat6detail9FormatArg9toIntImplImEEiPKv@Base 0.35.3
 _ZN10tinyformat6formatIJA13_cPKcEEENSt7__cxx1112basic_stringIcSt11char_traitsIcESaIcEEES3_DpRKT_@Base 0.35.3
 _ZN10tinyformat6formatIJA17_cPKcEEENSt7__cxx1112basic_stringIcSt11char_traitsIcESaIcEEES3_DpRKT_@Base 0.35.3
 _ZN10tinyformat6formatIJA256_cPKcEEENSt7__cxx1112basic_stringIcSt11char_traitsIcESaIcEEES3_DpRKT_@Base 0.35.3
 _ZN10tinyformat6formatIJNSt7__cxx1112basic_stringIcSt11char_traitsIcESaIcEEEEEES6_PKcDpRKT_@Base 0.35.3
 _ZN10tinyformat6formatIJNSt7__cxx1112basic_stringIcSt11char_traitsIcESaIcEEEPKcEEES6_S8_DpRKT_@Base 0.35.3
 _ZN10tinyformat6formatIJNSt7__cxx1112basic_stringIcSt11char_traitsIcESaIcEEES6_EEES6_PKcDpRKT_@Base 0.35.3
 _ZN10tinyformat6formatIJNSt7__cxx1112basic_stringIcSt11char_traitsIcESaIcEEEciEEES6_PKcDpRKT_@Base 0.35.3
 _ZN10tinyformat6formatIJPKcEEENSt7__cxx1112basic_stringIcSt11char_traitsIcESaIcEEES2_DpRKT_@Base 0.35.3
 _ZN10tinyformat6formatIJPKcS2_EEENSt7__cxx1112basic_stringIcSt11char_traitsIcESaIcEEES2_DpRKT_@Base 0.35.3
 _ZN10tinyformat6formatIJPKcS2_S2_EEENSt7__cxx1112basic_stringIcSt11char_traitsIcESaIcEEES2_DpRKT_@Base 0.35.3
 _ZN10tinyformat6formatIJPcEEENSt7__cxx1112basic_stringIcSt11char_traitsIcESaIcEEEPKcDpRKT_@Base 0.35.3
 _ZN10tinyformat6formatIJcEEENSt7__cxx1112basic_stringIcSt11char_traitsIcESaIcEEEPKcDpRKT_@Base 0.35.3
 _ZN10tinyformat6formatIJffEEENSt7__cxx1112basic_stringIcSt11char_traitsIcESaIcEEEPKcDpRKT_@Base 0.35.3
 _ZN10tinyformat6formatIJiiEEENSt7__cxx1112basic_stringIcSt11char_traitsIcESaIcEEEPKcDpRKT_@Base 0.35.3
 _ZN10tinyformat6formatIJjjEEENSt7__cxx1112basic_stringIcSt11char_traitsIcESaIcEEEPKcDpRKT_@Base 0.35.3
 _ZN10tinyformat6formatIJlEEENSt7__cxx1112basic_stringIcSt11char_traitsIcESaIcEEEPKcDpRKT_@Base 0.35.3
 _ZN10tinyformat6formatIJllEEENSt7__cxx1112basic_stringIcSt11char_traitsIcESaIcEEEPKcDpRKT_@Base 0.35.3
 _ZN10tinyformat6formatIJmmEEENSt7__cxx1112basic_stringIcSt11char_traitsIcESaIcEEEPKcDpRKT_@Base 0.35.3
 _ZN4Line11setUserdataEPv@Base 0.35.3
 _ZN4Line13setColumnDataEP6ColumnRKNSt7__cxx1112basic_stringIcSt11char_traitsIcESaIcEEE@Base 0.35.3
 _ZN4Line13setColumnDataERKSt10shared_ptrI6ColumnERKNSt7__cxx1112basic_stringIcSt11char_traitsIcESaIcEEE@Base 0.35.3
 _ZN4Line15referColumnDataEP6ColumnPc@Base 0.35.3
 _ZN4Line7setDataEmRKNSt7__cxx1112basic_stringIcSt11char_traitsIcESaIcEEE@Base 0.35.3
 _ZN4Line8setColorERKNSt7__cxx1112basic_stringIcSt11char_traitsIcESaIcEEE@Base 0.35.3
 _ZN4Line9nextChildEP13libscols_iter@Base 0.35.3
 _ZN5Regex16InvalidExceptionD0Ev@Base 0.35.3
 _ZN5Regex16InvalidExceptionD1Ev@Base 0.35.3
 _ZN5Regex16InvalidExceptionD2Ev@Base 0.35.3
 _ZN5Regex16LibraryExceptionD0Ev@Base 0.35.3
 _ZN5Regex16LibraryExceptionD1Ev@Base 0.35.3
 _ZN5Regex16LibraryExceptionD2Ev@Base 0.35.3
 _ZN5Regex6ResultC1EOS0_@Base 0.35.3
 _ZN5Regex6ResultC1EPKcbm@Base 0.35.3
 _ZN5Regex6ResultC1ERKS0_@Base 0.35.3
 _ZN5Regex6ResultC2EOS0_@Base 0.35.3
 _ZN5Regex6ResultC2EPKcbm@Base 0.35.3
 _ZN5Regex6ResultC2ERKS0_@Base 0.35.3
 _ZN5Regex9ExceptionD0Ev@Base 0.35.3
 _ZN5Regex9ExceptionD1Ev@Base 0.35.3
 _ZN5Regex9ExceptionD2Ev@Base 0.35.3
 _ZN5RegexC1EPKci@Base 0.35.3
 _ZN5RegexC2EPKci@Base 0.35.3
 _ZN5RegexD1Ev@Base 0.35.3
 _ZN5RegexD2Ev@Base 0.35.3
 _ZN5RegexaSEOS_@Base 0.35.3
 _ZN5Table10moveColumnERKSt10shared_ptrI6ColumnES4_@Base 0.35.3
 _ZN5Table10removeLineERKSt10shared_ptrI4LineE@Base 0.35.3
 _ZN5Table10setSymbolsEP16libscols_symbols@Base 0.35.3
 _ZN5Table11removeLinesEv@Base 0.35.3
 _ZN5Table12removeColumnERKSt10shared_ptrI6ColumnE@Base 0.35.3
 _ZN5Table12setTermforceENS_9TermForceE@Base 0.35.3
 _ZN5Table13removeColumnsEv@Base 0.35.3
 _ZN5Table17setDefaultSymbolsEv@Base 0.35.3
 _ZN5Table18setColumnSeparatorERKNSt7__cxx1112basic_stringIcSt11char_traitsIcESaIcEEE@Base 0.35.3
 _ZN5Table7addLineERKSt10shared_ptrI4LineE@Base 0.35.3
 _ZN5Table7newLineERKSt10shared_ptrI4LineE@Base 0.35.3
 _ZN5Table7newLineEv@Base 0.35.3
 _ZN5Table8toStringB5cxx11ERKSt10shared_ptrI4LineES4_@Base 0.35.3
 _ZN5Table8toStringB5cxx11Ev@Base 0.35.3
 _ZN5Table9addColumnERKSt10shared_ptrI6ColumnE@Base 0.35.3
 _ZN5Table9newColumnERKNSt7__cxx1112basic_stringIcSt11char_traitsIcESaIcEEEdi@Base 0.35.3
 _ZN5Table9setStreamEP8_IO_FILE@Base 0.35.3
 _ZN5TableC1Ev@Base 0.35.3
 _ZN5TableC2Ev@Base 0.35.3
 _ZN6Column12setSafecharsERKNSt7__cxx1112basic_stringIcSt11char_traitsIcESaIcEEE@Base 0.35.3
 _ZN6Column12setWidthHintEd@Base 0.35.3
 _ZN6Column15setWrapFunctionEPFmPK15libscols_columnPKcPvEPFPcS2_S8_S5_ES5_@Base 0.35.3
 _ZN6Column18setCompareFunctionEPFiP13libscols_cellS1_PvES2_@Base 0.35.3
 _ZN6Column7setWrapEb@Base 0.35.3
 _ZN6Column8setColorERKNSt7__cxx1112basic_stringIcSt11char_traitsIcESaIcEEE@Base 0.35.3
 _ZN6Column8setFlagsEi@Base 0.35.3
 _ZN6libdnf10ConfigMain10debuglevelEv@Base 0.35.3
 _ZN6libdnf10ConfigMain10defaultyesEv@Base 0.35.3
 _ZN6libdnf10ConfigMain10errorlevelEv@Base 0.35.3
 _ZN6libdnf10ConfigMain10ignorearchEv@Base 0.35.3
 _ZN6libdnf10ConfigMain10ip_resolveB5cxx11Ev@Base 0.35.3
 _ZN6libdnf10ConfigMain10log_rotateEv@Base 0.35.3
 _ZN6libdnf10ConfigMain10persistdirEv@Base 0.35.3
 _ZN6libdnf10ConfigMain10pluginpathEv@Base 0.35.3
 _ZN6libdnf10ConfigMain10reset_niceEv@Base 0.35.3
 _ZN6libdnf10ConfigMain10user_agentEv@Base 0.35.3
 _ZN6libdnf10ConfigMain11excludepkgsEv@Base 0.35.3
 _ZN6libdnf10ConfigMain11includepkgsEv@Base 0.35.3
 _ZN6libdnf10ConfigMain11installrootEv@Base 0.35.3
 _ZN6libdnf10ConfigMain11skip_brokenEv@Base 0.35.3
 _ZN6libdnf10ConfigMain11transformdbEv@Base 0.35.3
 _ZN6libdnf10ConfigMain12debug_solverEv@Base 0.35.3
 _ZN6libdnf10ConfigMain12downloadonlyEv@Base 0.35.3
 _ZN6libdnf10ConfigMain12enablegroupsEv@Base 0.35.3
 _ZN6libdnf10ConfigMain12exit_on_lockEv@Base 0.35.3
 _ZN6libdnf10ConfigMain12rpmverbosityEv@Base 0.35.3
 _ZN6libdnf10ConfigMain12sslclientkeyEv@Base 0.35.3
 _ZN6libdnf10ConfigMain13fastestmirrorEv@Base 0.35.3
 _ZN6libdnf10ConfigMain13repo_gpgcheckEv@Base 0.35.3
 _ZN6libdnf10ConfigMain13sslclientcertEv@Base 0.35.3
 _ZN6libdnf10ConfigMain14bugtracker_urlEv@Base 0.35.3
 _ZN6libdnf10ConfigMain14diskspacecheckEv@Base 0.35.3
 _ZN6libdnf10ConfigMain14history_recordEv@Base 0.35.3
 _ZN6libdnf10ConfigMain14pluginconfpathEv@Base 0.35.3
 _ZN6libdnf10ConfigMain14proxy_passwordEv@Base 0.35.3
 _ZN6libdnf10ConfigMain14proxy_usernameEv@Base 0.35.3
 _ZN6libdnf10ConfigMain15installonlypkgsEv@Base 0.35.3
 _ZN6libdnf10ConfigMain15metadata_expireEv@Base 0.35.3
 _ZN6libdnf10ConfigMain15multilib_policyB5cxx11Ev@Base 0.35.3
 _ZN6libdnf10ConfigMain15system_cachedirEv@Base 0.35.3
 _ZN6libdnf10ConfigMain16config_file_pathEv@Base 0.35.3
 _ZN6libdnf10ConfigMain16disable_excludesEv@Base 0.35.3
 _ZN6libdnf10ConfigMain17history_list_viewB5cxx11Ev@Base 0.35.3
 _ZN6libdnf10ConfigMain17install_weak_depsEv@Base 0.35.3
 _ZN6libdnf10ConfigMain17installonly_limitEv@Base 0.35.3
 _ZN6libdnf10ConfigMain17localpkg_gpgcheckEv@Base 0.35.3
 _ZN6libdnf10ConfigMain17proxy_auth_methodB5cxx11Ev@Base 0.35.3
 _ZN6libdnf10ConfigMain18color_search_matchEv@Base 0.35.3
 _ZN6libdnf10ConfigMain18color_update_localEv@Base 0.35.3
 _ZN6libdnf10ConfigMain18module_platform_idEv@Base 0.35.3
 _ZN6libdnf10ConfigMain18protected_packagesEv@Base 0.35.3
 _ZN6libdnf10ConfigMain18showdupesfromreposEv@Base 0.35.3
 _ZN6libdnf10ConfigMain19color_update_remoteEv@Base 0.35.3
 _ZN6libdnf10ConfigMain19deltarpm_percentageEv@Base 0.35.3
 _ZN6libdnf10ConfigMain19group_package_typesEv@Base 0.35.3
 _ZN6libdnf10ConfigMain19metadata_timer_syncEv@Base 0.35.3
 _ZN6libdnf10ConfigMain19skip_if_unavailableEv@Base 0.35.3
 _ZN6libdnf10ConfigMain21check_config_file_ageEv@Base 0.35.3
 _ZN6libdnf10ConfigMain22color_update_installedEv@Base 0.35.3
 _ZN6libdnf10ConfigMain22max_parallel_downloadsEv@Base 0.35.3
 _ZN6libdnf10ConfigMain23gpgkey_dns_verificationEv@Base 0.35.3
 _ZN6libdnf10ConfigMain23history_record_packagesEv@Base 0.35.3
 _ZN6libdnf10ConfigMain24autocheck_running_kernelEv@Base 0.35.3
 _ZN6libdnf10ConfigMain26color_list_installed_extraEv@Base 0.35.3
 _ZN6libdnf10ConfigMain26color_list_installed_newerEv@Base 0.35.3
 _ZN6libdnf10ConfigMain26color_list_installed_olderEv@Base 0.35.3
 _ZN6libdnf10ConfigMain28clean_requirements_on_removeEv@Base 0.35.3
 _ZN6libdnf10ConfigMain28color_list_available_installEv@Base 0.35.3
 _ZN6libdnf10ConfigMain28color_list_available_upgradeEv@Base 0.35.3
 _ZN6libdnf10ConfigMain29upgrade_group_objects_upgradeEv@Base 0.35.3
 _ZN6libdnf10ConfigMain30color_list_available_downgradeEv@Base 0.35.3
 _ZN6libdnf10ConfigMain30color_list_available_reinstallEv@Base 0.35.3
 _ZN6libdnf10ConfigMain30color_list_installed_reinstallEv@Base 0.35.3
 _ZN6libdnf10ConfigMain4ImplC1ERNS_6ConfigE@Base 0.35.3
 _ZN6libdnf10ConfigMain4ImplC2ERNS_6ConfigE@Base 0.35.3
 _ZN6libdnf10ConfigMain4ImplD1Ev@Base 0.35.3
 _ZN6libdnf10ConfigMain4ImplD2Ev@Base 0.35.3
 _ZN6libdnf10ConfigMain4bestEv@Base 0.35.3
 _ZN6libdnf10ConfigMain5colorB5cxx11Ev@Base 0.35.3
 _ZN6libdnf10ConfigMain5proxyEv@Base 0.35.3
 _ZN6libdnf10ConfigMain6logdirEv@Base 0.35.3
 _ZN6libdnf10ConfigMain6recentEv@Base 0.35.3
 _ZN6libdnf10ConfigMain6strictEv@Base 0.35.3
 _ZN6libdnf10ConfigMain6zchunkEv@Base 0.35.3
 _ZN6libdnf10ConfigMain7commentEv@Base 0.35.3
 _ZN6libdnf10ConfigMain7countmeEv@Base 0.35.3
 _ZN6libdnf10ConfigMain7destdirEv@Base 0.35.3
 _ZN6libdnf10ConfigMain7enabledEv@Base 0.35.3
 _ZN6libdnf10ConfigMain7minrateEv@Base 0.35.3
 _ZN6libdnf10ConfigMain7pluginsEv@Base 0.35.3
 _ZN6libdnf10ConfigMain7retriesEv@Base 0.35.3
 _ZN6libdnf10ConfigMain7timeoutEv@Base 0.35.3
 _ZN6libdnf10ConfigMain7tsflagsEv@Base 0.35.3
 _ZN6libdnf10ConfigMain7varsdirEv@Base 0.35.3
 _ZN6libdnf10ConfigMain8assumenoEv@Base 0.35.3
 _ZN6libdnf10ConfigMain8cachedirEv@Base 0.35.3
 _ZN6libdnf10ConfigMain8deltarpmEv@Base 0.35.3
 _ZN6libdnf10ConfigMain8gpgcheckEv@Base 0.35.3
 _ZN6libdnf10ConfigMain8log_sizeEv@Base 0.35.3
 _ZN6libdnf10ConfigMain8passwordEv@Base 0.35.3
 _ZN6libdnf10ConfigMain8reposdirEv@Base 0.35.3
 _ZN6libdnf10ConfigMain8throttleEv@Base 0.35.3
 _ZN6libdnf10ConfigMain8usernameEv@Base 0.35.3
 _ZN6libdnf10ConfigMain9assumeyesEv@Base 0.35.3
 _ZN6libdnf10ConfigMain9bandwidthEv@Base 0.35.3
 _ZN6libdnf10ConfigMain9cacheonlyEv@Base 0.35.3
 _ZN6libdnf10ConfigMain9keepcacheEv@Base 0.35.3
 _ZN6libdnf10ConfigMain9obsoletesEv@Base 0.35.3
 _ZN6libdnf10ConfigMain9sslcacertEv@Base 0.35.3
 _ZN6libdnf10ConfigMain9sslverifyEv@Base 0.35.3
 _ZN6libdnf10ConfigMainC1Ev@Base 0.35.3
 _ZN6libdnf10ConfigMainC2Ev@Base 0.35.3
 _ZN6libdnf10ConfigMainD1Ev@Base 0.35.3
 _ZN6libdnf10ConfigMainD2Ev@Base 0.35.3
 _ZN6libdnf10ConfigRepo10ip_resolveB5cxx11Ev@Base 0.35.3
 _ZN6libdnf10ConfigRepo10mirrorlistEv@Base 0.35.3
 _ZN6libdnf10ConfigRepo10user_agentEv@Base 0.35.3
 _ZN6libdnf10ConfigRepo11excludepkgsEv@Base 0.35.3
 _ZN6libdnf10ConfigRepo11includepkgsEv@Base 0.35.3
 _ZN6libdnf10ConfigRepo12basecachedirEv@Base 0.35.3
 _ZN6libdnf10ConfigRepo12enablegroupsEv@Base 0.35.3
 _ZN6libdnf10ConfigRepo12sslclientkeyEv@Base 0.35.3
 _ZN6libdnf10ConfigRepo13fastestmirrorEv@Base 0.35.3
 _ZN6libdnf10ConfigRepo13repo_gpgcheckEv@Base 0.35.3
 _ZN6libdnf10ConfigRepo13sslclientcertEv@Base 0.35.3
 _ZN6libdnf10ConfigRepo14failovermethodB5cxx11Ev@Base 0.35.3
 _ZN6libdnf10ConfigRepo14proxy_passwordEv@Base 0.35.3
 _ZN6libdnf10ConfigRepo14proxy_usernameEv@Base 0.35.3
 _ZN6libdnf10ConfigRepo15getMasterConfigEv@Base 0.35.3
 _ZN6libdnf10ConfigRepo15metadata_expireEv@Base 0.35.3
 _ZN6libdnf10ConfigRepo15module_hotfixesEv@Base 0.35.3
 _ZN6libdnf10ConfigRepo16enabled_metadataEv@Base 0.35.3
 _ZN6libdnf10ConfigRepo17proxy_auth_methodB5cxx11Ev@Base 0.35.3
 _ZN6libdnf10ConfigRepo18protected_packagesEv@Base 0.35.3
 _ZN6libdnf10ConfigRepo19deltarpm_percentageEv@Base 0.35.3
 _ZN6libdnf10ConfigRepo19skip_if_unavailableEv@Base 0.35.3
 _ZN6libdnf10ConfigRepo22max_parallel_downloadsEv@Base 0.35.3
 _ZN6libdnf10ConfigRepo4ImplC1ERNS_6ConfigERNS_10ConfigMainE@Base 0.35.3
 _ZN6libdnf10ConfigRepo4ImplC2ERNS_6ConfigERNS_10ConfigMainE@Base 0.35.3
 _ZN6libdnf10ConfigRepo4costEv@Base 0.35.3
 _ZN6libdnf10ConfigRepo4nameEv@Base 0.35.3
 _ZN6libdnf10ConfigRepo4typeEv@Base 0.35.3
 _ZN6libdnf10ConfigRepo5proxyEv@Base 0.35.3
 _ZN6libdnf10ConfigRepo6gpgkeyEv@Base 0.35.3
 _ZN6libdnf10ConfigRepo7baseurlEv@Base 0.35.3
 _ZN6libdnf10ConfigRepo7countmeEv@Base 0.35.3
 _ZN6libdnf10ConfigRepo7enabledEv@Base 0.35.3
 _ZN6libdnf10ConfigRepo7mediaidEv@Base 0.35.3
 _ZN6libdnf10ConfigRepo7minrateEv@Base 0.35.3
 _ZN6libdnf10ConfigRepo7retriesEv@Base 0.35.3
 _ZN6libdnf10ConfigRepo7timeoutEv@Base 0.35.3
 _ZN6libdnf10ConfigRepo8deltarpmEv@Base 0.35.3
 _ZN6libdnf10ConfigRepo8gpgcheckEv@Base 0.35.3
 _ZN6libdnf10ConfigRepo8metalinkEv@Base 0.35.3
 _ZN6libdnf10ConfigRepo8passwordEv@Base 0.35.3
 _ZN6libdnf10ConfigRepo8priorityEv@Base 0.35.3
 _ZN6libdnf10ConfigRepo8throttleEv@Base 0.35.3
 _ZN6libdnf10ConfigRepo8usernameEv@Base 0.35.3
 _ZN6libdnf10ConfigRepo9bandwidthEv@Base 0.35.3
 _ZN6libdnf10ConfigRepo9sslcacertEv@Base 0.35.3
 _ZN6libdnf10ConfigRepo9sslverifyEv@Base 0.35.3
 _ZN6libdnf10ConfigRepoC1EOS0_@Base 0.35.3
 _ZN6libdnf10ConfigRepoC1ERNS_10ConfigMainE@Base 0.35.3
 _ZN6libdnf10ConfigRepoC2EOS0_@Base 0.35.3
 _ZN6libdnf10ConfigRepoC2ERNS_10ConfigMainE@Base 0.35.3
 _ZN6libdnf10ConfigRepoD1Ev@Base 0.35.3
 _ZN6libdnf10ConfigRepoD2Ev@Base 0.35.3
 _ZN6libdnf10Dependency11getReldepIdEP8_DnfSackPKc@Base 0.35.3
 _ZN6libdnf10Dependency11getReldepIdEP8_DnfSackPKcS4_i@Base 0.35.3
 _ZN6libdnf10DependencyC1EP8_DnfSackPKcS4_i@Base 0.35.3
 _ZN6libdnf10DependencyC1EP8_DnfSackRKNSt7__cxx1112basic_stringIcSt11char_traitsIcESaIcEEE@Base 0.35.3
 _ZN6libdnf10DependencyC1EP8_DnfSacki@Base 0.35.3
 _ZN6libdnf10DependencyC1ERKS0_@Base 0.35.3
 _ZN6libdnf10DependencyC2EP8_DnfSackPKcS4_i@Base 0.35.3
 _ZN6libdnf10DependencyC2EP8_DnfSackRKNSt7__cxx1112basic_stringIcSt11char_traitsIcESaIcEEE@Base 0.35.3
 _ZN6libdnf10DependencyC2EP8_DnfSacki@Base 0.35.3
 _ZN6libdnf10DependencyC2ERKS0_@Base 0.35.3
 _ZN6libdnf10DependencyD1Ev@Base 0.35.3
 _ZN6libdnf10DependencyD2Ev@Base 0.35.3
 _ZN6libdnf10Downloader11downloadURLEPNS_10ConfigMainEPKci@Base 0.35.3
 _ZN6libdnf10LibrepoLog10addHandlerERKNSt7__cxx1112basic_stringIcSt11char_traitsIcESaIcEEEb@Base 0.35.3
 _ZN6libdnf10LibrepoLog13removeHandlerEl@Base 0.35.3
 _ZN6libdnf10LibrepoLog17removeAllHandlersEv@Base 0.35.3
 _ZN6libdnf10NullLogger5writeEiNS_6Logger5LevelERKNSt7__cxx1112basic_stringIcSt11char_traitsIcESaIcEEE@Base 0.35.3
 _ZN6libdnf10NullLogger5writeEiliNS_6Logger5LevelERKNSt7__cxx1112basic_stringIcSt11char_traitsIcESaIcEEE@Base 0.35.3
 _ZN6libdnf10NullLoggerD0Ev@Base 0.35.3
 _ZN6libdnf10NullLoggerD1Ev@Base 0.35.3
 _ZN6libdnf10NullLoggerD2Ev@Base 0.35.3
 _ZN6libdnf10OptionBool3setENS_6Option8PriorityERKNSt7__cxx1112basic_stringIcSt11char_traitsIcESaIcEEE@Base 0.35.3
 _ZN6libdnf10OptionBool3setENS_6Option8PriorityEb@Base 0.35.3
 _ZN6libdnf10OptionBoolC1Eb@Base 0.35.3
 _ZN6libdnf10OptionBoolC1EbPKPKcS4_@Base 0.35.3
 _ZN6libdnf10OptionBoolC2Eb@Base 0.35.3
 _ZN6libdnf10OptionBoolC2EbPKPKcS4_@Base 0.35.3
 _ZN6libdnf10OptionBoolD0Ev@Base 0.35.3
 _ZN6libdnf10OptionBoolD1Ev@Base 0.35.3
 _ZN6libdnf10OptionBoolD2Ev@Base 0.35.3
 _ZN6libdnf10OptionEnumINSt7__cxx1112basic_stringIcSt11char_traitsIcESaIcEEEE3setENS_6Option8PriorityERKS6_@Base 0.35.3
 _ZN6libdnf10OptionEnumINSt7__cxx1112basic_stringIcSt11char_traitsIcESaIcEEEEC1ERKS6_OSt6vectorIS6_SaIS6_EE@Base 0.35.3
 _ZN6libdnf10OptionEnumINSt7__cxx1112basic_stringIcSt11char_traitsIcESaIcEEEEC1ERKS6_OSt6vectorIS6_SaIS6_EEOSt8functionIFS6_S9_EE@Base 0.35.3
 _ZN6libdnf10OptionEnumINSt7__cxx1112basic_stringIcSt11char_traitsIcESaIcEEEEC1ERKS6_RKSt6vectorIS6_SaIS6_EE@Base 0.35.3
 _ZN6libdnf10OptionEnumINSt7__cxx1112basic_stringIcSt11char_traitsIcESaIcEEEEC1ERKS6_RKSt6vectorIS6_SaIS6_EEOSt8functionIFS6_S9_EE@Base 0.35.3
 _ZN6libdnf10OptionEnumINSt7__cxx1112basic_stringIcSt11char_traitsIcESaIcEEEEC2ERKS6_OSt6vectorIS6_SaIS6_EE@Base 0.35.3
 _ZN6libdnf10OptionEnumINSt7__cxx1112basic_stringIcSt11char_traitsIcESaIcEEEEC2ERKS6_OSt6vectorIS6_SaIS6_EEOSt8functionIFS6_S9_EE@Base 0.35.3
 _ZN6libdnf10OptionEnumINSt7__cxx1112basic_stringIcSt11char_traitsIcESaIcEEEEC2ERKS6_RKSt6vectorIS6_SaIS6_EE@Base 0.35.3
 _ZN6libdnf10OptionEnumINSt7__cxx1112basic_stringIcSt11char_traitsIcESaIcEEEEC2ERKS6_RKSt6vectorIS6_SaIS6_EEOSt8functionIFS6_S9_EE@Base 0.35.3
 _ZN6libdnf10OptionEnumINSt7__cxx1112basic_stringIcSt11char_traitsIcESaIcEEEED0Ev@Base 0.35.3
 _ZN6libdnf10OptionEnumINSt7__cxx1112basic_stringIcSt11char_traitsIcESaIcEEEED1Ev@Base 0.35.3
 _ZN6libdnf10OptionEnumINSt7__cxx1112basic_stringIcSt11char_traitsIcESaIcEEEED2Ev@Base 0.35.3
 _ZN6libdnf10OptionPath3setENS_6Option8PriorityERKNSt7__cxx1112basic_stringIcSt11char_traitsIcESaIcEEE@Base 0.35.3
 _ZN6libdnf10OptionPathC1EPKcRKNSt7__cxx1112basic_stringIcSt11char_traitsIcESaIcEEEbbb@Base 0.35.3
 _ZN6libdnf10OptionPathC1EPKcbb@Base 0.35.3
 _ZN6libdnf10OptionPathC1ERKNSt7__cxx1112basic_stringIcSt11char_traitsIcESaIcEEES8_bbb@Base 0.35.3
 _ZN6libdnf10OptionPathC1ERKNSt7__cxx1112basic_stringIcSt11char_traitsIcESaIcEEEbb@Base 0.35.3
 _ZN6libdnf10OptionPathC2EPKcRKNSt7__cxx1112basic_stringIcSt11char_traitsIcESaIcEEEbbb@Base 0.35.3
 _ZN6libdnf10OptionPathC2EPKcbb@Base 0.35.3
 _ZN6libdnf10OptionPathC2ERKNSt7__cxx1112basic_stringIcSt11char_traitsIcESaIcEEES8_bbb@Base 0.35.3
 _ZN6libdnf10OptionPathC2ERKNSt7__cxx1112basic_stringIcSt11char_traitsIcESaIcEEEbb@Base 0.35.3
 _ZN6libdnf10OptionPathD0Ev@Base 0.35.3
 _ZN6libdnf10OptionPathD1Ev@Base 0.35.3
 _ZN6libdnf10OptionPathD2Ev@Base 0.35.3
 _ZN6libdnf10PackageSet3setEP11_DnfPackage@Base 0.35.3
 _ZN6libdnf10PackageSet3setEi@Base 0.35.3
 _ZN6libdnf10PackageSet4ImplC1EP8_DnfSack@Base 0.35.3
 _ZN6libdnf10PackageSet4ImplC1EP8_DnfSackP4_Map@Base 0.35.3
 _ZN6libdnf10PackageSet4ImplC1ERKS0_@Base 0.35.3
 _ZN6libdnf10PackageSet4ImplC2EP8_DnfSack@Base 0.35.3
 _ZN6libdnf10PackageSet4ImplC2EP8_DnfSackP4_Map@Base 0.35.3
 _ZN6libdnf10PackageSet4ImplC2ERKS0_@Base 0.35.3
 _ZN6libdnf10PackageSet4ImplD1Ev@Base 0.35.3
 _ZN6libdnf10PackageSet4ImplD2Ev@Base 0.35.3
 _ZN6libdnf10PackageSet5clearEv@Base 0.35.3
 _ZN6libdnf10PackageSet5emptyEv@Base 0.35.3
 _ZN6libdnf10PackageSet6removeEi@Base 0.35.3
 _ZN6libdnf10PackageSetC1EOS0_@Base 0.35.3
 _ZN6libdnf10PackageSetC1EP8_DnfSack@Base 0.35.3
 _ZN6libdnf10PackageSetC1EP8_DnfSackP4_Map@Base 0.35.3
 _ZN6libdnf10PackageSetC1ERKS0_@Base 0.35.3
 _ZN6libdnf10PackageSetC2EOS0_@Base 0.35.3
 _ZN6libdnf10PackageSetC2EP8_DnfSack@Base 0.35.3
 _ZN6libdnf10PackageSetC2EP8_DnfSackP4_Map@Base 0.35.3
 _ZN6libdnf10PackageSetC2ERKS0_@Base 0.35.3
 _ZN6libdnf10PackageSetD1Ev@Base 0.35.3
 _ZN6libdnf10PackageSetD2Ev@Base 0.35.3
 _ZN6libdnf10PackageSetdVEPK4_Map@Base 0.35.3
 _ZN6libdnf10PackageSetdVERKS0_@Base 0.35.3
 _ZN6libdnf10PackageSetmIEPK4_Map@Base 0.35.3
 _ZN6libdnf10PackageSetmIERKS0_@Base 0.35.3
 _ZN6libdnf10PackageSetpLEPK4_Map@Base 0.35.3
 _ZN6libdnf10PackageSetpLERKS0_@Base 0.35.3
 _ZN6libdnf10filesystem10decompressEPKcS2_jS2_@Base 0.35.3
 _ZN6libdnf10filesystem13getDirContentERKNSt7__cxx1112basic_stringIcSt11char_traitsIcESaIcEEE@Base 0.35.3
 _ZN6libdnf10filesystem5isDIRERKNSt7__cxx1112basic_stringIcSt11char_traitsIcESaIcEEE@Base 0.35.3
 _ZN6libdnf10filesystem6existsERKNSt7__cxx1112basic_stringIcSt11char_traitsIcESaIcEEE@Base 0.35.3
 _ZN6libdnf10fromStringIfEEbRT_RKNSt7__cxx1112basic_stringIcSt11char_traitsIcESaIcEEEPFRSt8ios_baseSC_E@Base 0.35.3
 _ZN6libdnf10fromStringIiEEbRT_RKNSt7__cxx1112basic_stringIcSt11char_traitsIcESaIcEEEPFRSt8ios_baseSC_E@Base 0.35.3
 _ZN6libdnf10fromStringIjEEbRT_RKNSt7__cxx1112basic_stringIcSt11char_traitsIcESaIcEEEPFRSt8ios_baseSC_E@Base 0.35.3
 _ZN6libdnf10fromStringIlEEbRT_RKNSt7__cxx1112basic_stringIcSt11char_traitsIcESaIcEEEPFRSt8ios_baseSC_E@Base 0.35.3
 _ZN6libdnf10fromStringImEEbRT_RKNSt7__cxx1112basic_stringIcSt11char_traitsIcESaIcEEEPFRSt8ios_baseSC_E@Base 0.35.3
 _ZN6libdnf10pathExistsEPKc@Base 0.35.3
 _ZN6libdnf10updateFileEPKcS1_@Base 0.35.3
 _ZN6libdnf11AdvisoryPkg7getSackEv@Base 0.35.3
 _ZN6libdnf11AdvisoryPkg7nevraEQEP9_Solvable@Base 0.35.3
 _ZN6libdnf11AdvisoryPkg7nevraEQERS0_@Base 0.35.3
 _ZN6libdnf11AdvisoryPkgC1EOS0_@Base 0.35.3
 _ZN6libdnf11AdvisoryPkgC1EP8_DnfSackiiiiPKc@Base 0.35.3
 _ZN6libdnf11AdvisoryPkgC1ERKS0_@Base 0.35.3
 _ZN6libdnf11AdvisoryPkgC2EOS0_@Base 0.35.3
 _ZN6libdnf11AdvisoryPkgC2EP8_DnfSackiiiiPKc@Base 0.35.3
 _ZN6libdnf11AdvisoryPkgC2ERKS0_@Base 0.35.3
 _ZN6libdnf11AdvisoryPkgD1Ev@Base 0.35.3
 _ZN6libdnf11AdvisoryPkgD2Ev@Base 0.35.3
 _ZN6libdnf11AdvisoryPkgaSEOS0_@Base 0.35.3
 _ZN6libdnf11AdvisoryPkgaSERKS0_@Base 0.35.3
 _ZN6libdnf11AdvisoryRefC1EP8_DnfSackii@Base 0.35.3
 _ZN6libdnf11AdvisoryRefC2EP8_DnfSackii@Base 0.35.3
 _ZN6libdnf11LrExceptionD0Ev@Base 0.35.3
 _ZN6libdnf11LrExceptionD1Ev@Base 0.35.3
 _ZN6libdnf11LrExceptionD2Ev@Base 0.35.3
 _ZN6libdnf11OptionBinds10OutOfRangeD0Ev@Base 0.35.3
 _ZN6libdnf11OptionBinds10OutOfRangeD1Ev@Base 0.35.3
 _ZN6libdnf11OptionBinds10OutOfRangeD2Ev@Base 0.35.3
 _ZN6libdnf11OptionBinds13AlreadyExistsD0Ev@Base 0.35.3
 _ZN6libdnf11OptionBinds13AlreadyExistsD1Ev@Base 0.35.3
 _ZN6libdnf11OptionBinds13AlreadyExistsD2Ev@Base 0.35.3
 _ZN6libdnf11OptionBinds2atERKNSt7__cxx1112basic_stringIcSt11char_traitsIcESaIcEEE@Base 0.35.3
 _ZN6libdnf11OptionBinds3addERKNSt7__cxx1112basic_stringIcSt11char_traitsIcESaIcEEERNS_6OptionE@Base 0.35.3
 _ZN6libdnf11OptionBinds3addERKNSt7__cxx1112basic_stringIcSt11char_traitsIcESaIcEEERNS_6OptionEOSt8functionIFvNS9_8PriorityES8_EEOSB_IFS8_vEEb@Base 0.35.3
 _ZN6libdnf11OptionBinds3addERKNSt7__cxx1112basic_stringIcSt11char_traitsIcESaIcEEERNS_6OptionERKSt8functionIFvNS9_8PriorityES8_EERKSB_IFS8_vEEb@Base 0.35.3
 _ZN6libdnf11OptionBinds4Item9newStringENS_6Option8PriorityERKNSt7__cxx1112basic_stringIcSt11char_traitsIcESaIcEEE@Base 0.35.3
 _ZN6libdnf11OptionBinds4ItemC1ERNS_6OptionE@Base 0.35.3
 _ZN6libdnf11OptionBinds4ItemC1ERNS_6OptionEOSt8functionIFvNS2_8PriorityERKNSt7__cxx1112basic_stringIcSt11char_traitsIcESaIcEEEEEOS4_IFSD_vEEb@Base 0.35.3
 _ZN6libdnf11OptionBinds4ItemC1ERNS_6OptionERKSt8functionIFvNS2_8PriorityERKNSt7__cxx1112basic_stringIcSt11char_traitsIcESaIcEEEEERKS4_IFSD_vEEb@Base 0.35.3
 _ZN6libdnf11OptionBinds4ItemC2ERNS_6OptionE@Base 0.35.3
 _ZN6libdnf11OptionBinds4ItemC2ERNS_6OptionEOSt8functionIFvNS2_8PriorityERKNSt7__cxx1112basic_stringIcSt11char_traitsIcESaIcEEEEEOS4_IFSD_vEEb@Base 0.35.3
 _ZN6libdnf11OptionBinds4ItemC2ERNS_6OptionERKSt8functionIFvNS2_8PriorityERKNSt7__cxx1112basic_stringIcSt11char_traitsIcESaIcEEEEERKS4_IFSD_vEEb@Base 0.35.3
 _ZN6libdnf11OptionBinds4ItemD1Ev@Base 0.35.3
 _ZN6libdnf11OptionBinds4ItemD2Ev@Base 0.35.3
 _ZN6libdnf11OptionBinds9ExceptionD0Ev@Base 0.35.3
 _ZN6libdnf11OptionBinds9ExceptionD1Ev@Base 0.35.3
 _ZN6libdnf11OptionBinds9ExceptionD2Ev@Base 0.35.3
 _ZN6libdnf11OptionChildINS_10OptionBoolEvE3setENS_6Option8PriorityERKNSt7__cxx1112basic_stringIcSt11char_traitsIcESaIcEEE@Base 0.35.3
 _ZN6libdnf11OptionChildINS_10OptionBoolEvED0Ev@Base 0.35.3
 _ZN6libdnf11OptionChildINS_10OptionBoolEvED1Ev@Base 0.35.3
 _ZN6libdnf11OptionChildINS_10OptionBoolEvED2Ev@Base 0.35.3
 _ZN6libdnf11OptionChildINS_10OptionEnumINSt7__cxx1112basic_stringIcSt11char_traitsIcESaIcEEEEEvE3setENS_6Option8PriorityERKS7_@Base 0.35.3
 _ZN6libdnf11OptionChildINS_10OptionEnumINSt7__cxx1112basic_stringIcSt11char_traitsIcESaIcEEEEEvED0Ev@Base 0.35.3
 _ZN6libdnf11OptionChildINS_10OptionEnumINSt7__cxx1112basic_stringIcSt11char_traitsIcESaIcEEEEEvED1Ev@Base 0.35.3
 _ZN6libdnf11OptionChildINS_10OptionEnumINSt7__cxx1112basic_stringIcSt11char_traitsIcESaIcEEEEEvED2Ev@Base 0.35.3
 _ZN6libdnf11OptionChildINS_12OptionNumberIfEEvE3setENS_6Option8PriorityERKNSt7__cxx1112basic_stringIcSt11char_traitsIcESaIcEEE@Base 0.35.3
 _ZN6libdnf11OptionChildINS_12OptionNumberIfEEvED0Ev@Base 0.35.3
 _ZN6libdnf11OptionChildINS_12OptionNumberIfEEvED1Ev@Base 0.35.3
 _ZN6libdnf11OptionChildINS_12OptionNumberIfEEvED2Ev@Base 0.35.3
 _ZN6libdnf11OptionChildINS_12OptionNumberIjEEvE3setENS_6Option8PriorityERKNSt7__cxx1112basic_stringIcSt11char_traitsIcESaIcEEE@Base 0.35.3
 _ZN6libdnf11OptionChildINS_12OptionNumberIjEEvED0Ev@Base 0.35.3
 _ZN6libdnf11OptionChildINS_12OptionNumberIjEEvED1Ev@Base 0.35.3
 _ZN6libdnf11OptionChildINS_12OptionNumberIjEEvED2Ev@Base 0.35.3
 _ZN6libdnf11OptionChildINS_12OptionStringEvE3setENS_6Option8PriorityERKNSt7__cxx1112basic_stringIcSt11char_traitsIcESaIcEEE@Base 0.35.3
 _ZN6libdnf11OptionChildINS_12OptionStringEvED0Ev@Base 0.35.3
 _ZN6libdnf11OptionChildINS_12OptionStringEvED1Ev@Base 0.35.3
 _ZN6libdnf11OptionChildINS_12OptionStringEvED2Ev@Base 0.35.3
 _ZN6libdnf11OptionChildINS_13OptionSecondsEvE3setENS_6Option8PriorityERKNSt7__cxx1112basic_stringIcSt11char_traitsIcESaIcEEE@Base 0.35.3
 _ZN6libdnf11OptionChildINS_13OptionSecondsEvED0Ev@Base 0.35.3
 _ZN6libdnf11OptionChildINS_13OptionSecondsEvED1Ev@Base 0.35.3
 _ZN6libdnf11OptionChildINS_13OptionSecondsEvED2Ev@Base 0.35.3
 _ZN6libdnf11OptionChildINS_16OptionStringListEvE3setENS_6Option8PriorityERKNSt7__cxx1112basic_stringIcSt11char_traitsIcESaIcEEE@Base 0.35.3
 _ZN6libdnf11OptionChildINS_16OptionStringListEvED0Ev@Base 0.35.3
 _ZN6libdnf11OptionChildINS_16OptionStringListEvED1Ev@Base 0.35.3
 _ZN6libdnf11OptionChildINS_16OptionStringListEvED2Ev@Base 0.35.3
 _ZN6libdnf11Transaction8dbSelectEl@Base 0.35.3
 _ZN6libdnf11Transaction8getItemsEv@Base 0.35.3
 _ZN6libdnf11TransactionC1ESt10shared_ptrI7SQLite3E@Base 0.35.3
 _ZN6libdnf11TransactionC1ESt10shared_ptrI7SQLite3El@Base 0.35.3
 _ZN6libdnf11TransactionC2ESt10shared_ptrI7SQLite3E@Base 0.35.3
 _ZN6libdnf11TransactionC2ESt10shared_ptrI7SQLite3El@Base 0.35.3
 _ZN6libdnf11TransactionD1Ev@Base 0.35.3
 _ZN6libdnf11TransactionD2Ev@Base 0.35.3
 _ZN6libdnf11Transformer11historyPathB5cxx11Ev@Base 0.35.3
 _ZN6libdnf11Transformer12processGroupESt10shared_ptrI7SQLite3EPKcP11json_object@Base 0.35.3
 _ZN6libdnf11Transformer14createDatabaseESt10shared_ptrI7SQLite3E@Base 0.35.3
 _ZN6libdnf11Transformer14transformTransESt10shared_ptrI7SQLite3ES3_@Base 0.35.3
 _ZN6libdnf11Transformer15transformGroupsESt10shared_ptrI7SQLite3E@Base 0.35.3
 _ZN6libdnf11Transformer15transformOutputESt10shared_ptrI7SQLite3ES1_INS_22TransformerTransactionEE@Base 0.35.3
 _ZN6libdnf11Transformer17transformRPMItemsESt10shared_ptrI7SQLite3ES3_S1_INS_22TransformerTransactionEE@Base 0.35.3
 _ZN6libdnf11Transformer18processEnvironmentESt10shared_ptrI7SQLite3EPKcP11json_object@Base 0.35.3
 _ZN6libdnf11Transformer18transformTransWithESt10shared_ptrI7SQLite3ES3_S1_INS_22TransformerTransactionEE@Base 0.35.3
 _ZN6libdnf11Transformer21processGroupPersistorESt10shared_ptrI7SQLite3EP11json_object@Base 0.35.3
 _ZN6libdnf11Transformer9ExceptionD0Ev@Base 0.35.3
 _ZN6libdnf11Transformer9ExceptionD1Ev@Base 0.35.3
 _ZN6libdnf11Transformer9ExceptionD2Ev@Base 0.35.3
 _ZN6libdnf11Transformer9getReasonERKNSt7__cxx1112basic_stringIcSt11char_traitsIcESaIcEEE@Base 0.35.3
 _ZN6libdnf11Transformer9transformEv@Base 0.35.3
 _ZN6libdnf11TransformerC1ERKNSt7__cxx1112basic_stringIcSt11char_traitsIcESaIcEEES8_@Base 0.35.3
 _ZN6libdnf11TransformerC2ERKNSt7__cxx1112basic_stringIcSt11char_traitsIcESaIcEEES8_@Base 0.35.3
 _ZN6libdnf11makeDirPathENSt7__cxx1112basic_stringIcSt11char_traitsIcESaIcEEE@Base 0.35.3
 _ZN6libdnf11repoGetImplEPNS_4RepoE@Base 0.35.3
 _ZN6libdnf12ConfigParser10substituteERNSt7__cxx1112basic_stringIcSt11char_traitsIcESaIcEEERKSt3mapIS6_S6_St4lessIS6_ESaISt4pairIKS6_S6_EEE@Base 0.35.3
 _ZN6libdnf12ConfigParser12CantOpenFileD0Ev@Base 0.35.3
 _ZN6libdnf12ConfigParser12CantOpenFileD1Ev@Base 0.35.3
 _ZN6libdnf12ConfigParser12CantOpenFileD2Ev@Base 0.35.3
 _ZN6libdnf12ConfigParser12ParsingErrorD0Ev@Base 0.35.3
 _ZN6libdnf12ConfigParser12ParsingErrorD1Ev@Base 0.35.3
 _ZN6libdnf12ConfigParser12ParsingErrorD2Ev@Base 0.35.3
 _ZN6libdnf12ConfigParser13MissingOptionD0Ev@Base 0.35.3
 _ZN6libdnf12ConfigParser13MissingOptionD1Ev@Base 0.35.3
 _ZN6libdnf12ConfigParser13MissingOptionD2Ev@Base 0.35.3
 _ZN6libdnf12ConfigParser14MissingSectionD0Ev@Base 0.35.3
 _ZN6libdnf12ConfigParser14MissingSectionD1Ev@Base 0.35.3
 _ZN6libdnf12ConfigParser14MissingSectionD2Ev@Base 0.35.3
 _ZN6libdnf12ConfigParser4readEOSt10unique_ptrISiSt14default_deleteISiEE@Base 0.35.3
 _ZN6libdnf12ConfigParser4readERKNSt7__cxx1112basic_stringIcSt11char_traitsIcESaIcEEE@Base 0.35.3
 _ZN6libdnf12ConfigParser8setValueERKNSt7__cxx1112basic_stringIcSt11char_traitsIcESaIcEEEOS6_S9_@Base 0.35.3
 _ZN6libdnf12ConfigParser8setValueERKNSt7__cxx1112basic_stringIcSt11char_traitsIcESaIcEEEOS6_S9_S9_@Base 0.35.3
 _ZN6libdnf12ConfigParser8setValueERKNSt7__cxx1112basic_stringIcSt11char_traitsIcESaIcEEES8_S8_@Base 0.35.3
 _ZN6libdnf12ConfigParser8setValueERKNSt7__cxx1112basic_stringIcSt11char_traitsIcESaIcEEES8_S8_S8_@Base 0.35.3
 _ZN6libdnf12ConfigParser9ExceptionD0Ev@Base 0.35.3
 _ZN6libdnf12ConfigParser9ExceptionD1Ev@Base 0.35.3
 _ZN6libdnf12ConfigParser9ExceptionD2Ev@Base 0.35.3
 _ZN6libdnf12ConfigParserD1Ev@Base 0.35.3
 _ZN6libdnf12ConfigParserD2Ev@Base 0.35.3
 _ZN6libdnf12OptionNumberIfE3setENS_6Option8PriorityERKNSt7__cxx1112basic_stringIcSt11char_traitsIcESaIcEEE@Base 0.35.3
 _ZN6libdnf12OptionNumberIfE3setENS_6Option8PriorityEf@Base 0.35.3
 _ZN6libdnf12OptionNumberIfEC1Ef@Base 0.35.3
 _ZN6libdnf12OptionNumberIfEC1EfOSt8functionIFfRKNSt7__cxx1112basic_stringIcSt11char_traitsIcESaIcEEEEE@Base 0.35.3
 _ZN6libdnf12OptionNumberIfEC1Eff@Base 0.35.3
 _ZN6libdnf12OptionNumberIfEC1EffOSt8functionIFfRKNSt7__cxx1112basic_stringIcSt11char_traitsIcESaIcEEEEE@Base 0.35.3
 _ZN6libdnf12OptionNumberIfEC1Efff@Base 0.35.3
 _ZN6libdnf12OptionNumberIfEC1EfffOSt8functionIFfRKNSt7__cxx1112basic_stringIcSt11char_traitsIcESaIcEEEEE@Base 0.35.3
 _ZN6libdnf12OptionNumberIfEC2Ef@Base 0.35.3
 _ZN6libdnf12OptionNumberIfEC2EfOSt8functionIFfRKNSt7__cxx1112basic_stringIcSt11char_traitsIcESaIcEEEEE@Base 0.35.3
 _ZN6libdnf12OptionNumberIfEC2Eff@Base 0.35.3
 _ZN6libdnf12OptionNumberIfEC2EffOSt8functionIFfRKNSt7__cxx1112basic_stringIcSt11char_traitsIcESaIcEEEEE@Base 0.35.3
 _ZN6libdnf12OptionNumberIfEC2Efff@Base 0.35.3
 _ZN6libdnf12OptionNumberIfEC2EfffOSt8functionIFfRKNSt7__cxx1112basic_stringIcSt11char_traitsIcESaIcEEEEE@Base 0.35.3
 _ZN6libdnf12OptionNumberIfED0Ev@Base 0.35.3
 _ZN6libdnf12OptionNumberIfED1Ev@Base 0.35.3
 _ZN6libdnf12OptionNumberIfED2Ev@Base 0.35.3
 _ZN6libdnf12OptionNumberIiE3setENS_6Option8PriorityERKNSt7__cxx1112basic_stringIcSt11char_traitsIcESaIcEEE@Base 0.35.3
 _ZN6libdnf12OptionNumberIiE3setENS_6Option8PriorityEi@Base 0.35.3
 _ZN6libdnf12OptionNumberIiEC1Ei@Base 0.35.3
 _ZN6libdnf12OptionNumberIiEC1EiOSt8functionIFiRKNSt7__cxx1112basic_stringIcSt11char_traitsIcESaIcEEEEE@Base 0.35.3
 _ZN6libdnf12OptionNumberIiEC1Eii@Base 0.35.3
 _ZN6libdnf12OptionNumberIiEC1EiiOSt8functionIFiRKNSt7__cxx1112basic_stringIcSt11char_traitsIcESaIcEEEEE@Base 0.35.3
 _ZN6libdnf12OptionNumberIiEC1Eiii@Base 0.35.3
 _ZN6libdnf12OptionNumberIiEC1EiiiOSt8functionIFiRKNSt7__cxx1112basic_stringIcSt11char_traitsIcESaIcEEEEE@Base 0.35.3
 _ZN6libdnf12OptionNumberIiEC2Ei@Base 0.35.3
 _ZN6libdnf12OptionNumberIiEC2EiOSt8functionIFiRKNSt7__cxx1112basic_stringIcSt11char_traitsIcESaIcEEEEE@Base 0.35.3
 _ZN6libdnf12OptionNumberIiEC2Eii@Base 0.35.3
 _ZN6libdnf12OptionNumberIiEC2EiiOSt8functionIFiRKNSt7__cxx1112basic_stringIcSt11char_traitsIcESaIcEEEEE@Base 0.35.3
 _ZN6libdnf12OptionNumberIiEC2Eiii@Base 0.35.3
 _ZN6libdnf12OptionNumberIiEC2EiiiOSt8functionIFiRKNSt7__cxx1112basic_stringIcSt11char_traitsIcESaIcEEEEE@Base 0.35.3
 _ZN6libdnf12OptionNumberIiED0Ev@Base 0.35.3
 _ZN6libdnf12OptionNumberIiED1Ev@Base 0.35.3
 _ZN6libdnf12OptionNumberIiED2Ev@Base 0.35.3
 _ZN6libdnf12OptionNumberIjE3setENS_6Option8PriorityERKNSt7__cxx1112basic_stringIcSt11char_traitsIcESaIcEEE@Base 0.35.3
 _ZN6libdnf12OptionNumberIjE3setENS_6Option8PriorityEj@Base 0.35.3
 _ZN6libdnf12OptionNumberIjEC1Ej@Base 0.35.3
 _ZN6libdnf12OptionNumberIjEC1EjOSt8functionIFjRKNSt7__cxx1112basic_stringIcSt11char_traitsIcESaIcEEEEE@Base 0.35.3
 _ZN6libdnf12OptionNumberIjEC1Ejj@Base 0.35.3
 _ZN6libdnf12OptionNumberIjEC1EjjOSt8functionIFjRKNSt7__cxx1112basic_stringIcSt11char_traitsIcESaIcEEEEE@Base 0.35.3
 _ZN6libdnf12OptionNumberIjEC1Ejjj@Base 0.35.3
 _ZN6libdnf12OptionNumberIjEC1EjjjOSt8functionIFjRKNSt7__cxx1112basic_stringIcSt11char_traitsIcESaIcEEEEE@Base 0.35.3
 _ZN6libdnf12OptionNumberIjEC2Ej@Base 0.35.3
 _ZN6libdnf12OptionNumberIjEC2EjOSt8functionIFjRKNSt7__cxx1112basic_stringIcSt11char_traitsIcESaIcEEEEE@Base 0.35.3
 _ZN6libdnf12OptionNumberIjEC2Ejj@Base 0.35.3
 _ZN6libdnf12OptionNumberIjEC2EjjOSt8functionIFjRKNSt7__cxx1112basic_stringIcSt11char_traitsIcESaIcEEEEE@Base 0.35.3
 _ZN6libdnf12OptionNumberIjEC2Ejjj@Base 0.35.3
 _ZN6libdnf12OptionNumberIjEC2EjjjOSt8functionIFjRKNSt7__cxx1112basic_stringIcSt11char_traitsIcESaIcEEEEE@Base 0.35.3
 _ZN6libdnf12OptionNumberIjED0Ev@Base 0.35.3
 _ZN6libdnf12OptionNumberIjED1Ev@Base 0.35.3
 _ZN6libdnf12OptionNumberIjED2Ev@Base 0.35.3
 _ZN6libdnf12OptionNumberIlE3setENS_6Option8PriorityERKNSt7__cxx1112basic_stringIcSt11char_traitsIcESaIcEEE@Base 0.35.3
 _ZN6libdnf12OptionNumberIlE3setENS_6Option8PriorityEl@Base 0.35.3
 _ZN6libdnf12OptionNumberIlEC1El@Base 0.35.3
 _ZN6libdnf12OptionNumberIlEC1ElOSt8functionIFlRKNSt7__cxx1112basic_stringIcSt11char_traitsIcESaIcEEEEE@Base 0.35.3
 _ZN6libdnf12OptionNumberIlEC1Ell@Base 0.35.3
 _ZN6libdnf12OptionNumberIlEC1EllOSt8functionIFlRKNSt7__cxx1112basic_stringIcSt11char_traitsIcESaIcEEEEE@Base 0.35.3
 _ZN6libdnf12OptionNumberIlEC1Elll@Base 0.35.3
 _ZN6libdnf12OptionNumberIlEC1ElllOSt8functionIFlRKNSt7__cxx1112basic_stringIcSt11char_traitsIcESaIcEEEEE@Base 0.35.3
 _ZN6libdnf12OptionNumberIlEC2El@Base 0.35.3
 _ZN6libdnf12OptionNumberIlEC2ElOSt8functionIFlRKNSt7__cxx1112basic_stringIcSt11char_traitsIcESaIcEEEEE@Base 0.35.3
 _ZN6libdnf12OptionNumberIlEC2Ell@Base 0.35.3
 _ZN6libdnf12OptionNumberIlEC2EllOSt8functionIFlRKNSt7__cxx1112basic_stringIcSt11char_traitsIcESaIcEEEEE@Base 0.35.3
 _ZN6libdnf12OptionNumberIlEC2Elll@Base 0.35.3
 _ZN6libdnf12OptionNumberIlEC2ElllOSt8functionIFlRKNSt7__cxx1112basic_stringIcSt11char_traitsIcESaIcEEEEE@Base 0.35.3
 _ZN6libdnf12OptionNumberIlED0Ev@Base 0.35.3
 _ZN6libdnf12OptionNumberIlED1Ev@Base 0.35.3
 _ZN6libdnf12OptionNumberIlED2Ev@Base 0.35.3
 _ZN6libdnf12OptionNumberImE3setENS_6Option8PriorityERKNSt7__cxx1112basic_stringIcSt11char_traitsIcESaIcEEE@Base 0.35.3
 _ZN6libdnf12OptionNumberImE3setENS_6Option8PriorityEm@Base 0.35.3
 _ZN6libdnf12OptionNumberImEC1Em@Base 0.35.3
 _ZN6libdnf12OptionNumberImEC1EmOSt8functionIFmRKNSt7__cxx1112basic_stringIcSt11char_traitsIcESaIcEEEEE@Base 0.35.3
 _ZN6libdnf12OptionNumberImEC1Emm@Base 0.35.3
 _ZN6libdnf12OptionNumberImEC1EmmOSt8functionIFmRKNSt7__cxx1112basic_stringIcSt11char_traitsIcESaIcEEEEE@Base 0.35.3
 _ZN6libdnf12OptionNumberImEC1Emmm@Base 0.35.3
 _ZN6libdnf12OptionNumberImEC1EmmmOSt8functionIFmRKNSt7__cxx1112basic_stringIcSt11char_traitsIcESaIcEEEEE@Base 0.35.3
 _ZN6libdnf12OptionNumberImEC2Em@Base 0.35.3
 _ZN6libdnf12OptionNumberImEC2EmOSt8functionIFmRKNSt7__cxx1112basic_stringIcSt11char_traitsIcESaIcEEEEE@Base 0.35.3
 _ZN6libdnf12OptionNumberImEC2Emm@Base 0.35.3
 _ZN6libdnf12OptionNumberImEC2EmmOSt8functionIFmRKNSt7__cxx1112basic_stringIcSt11char_traitsIcESaIcEEEEE@Base 0.35.3
 _ZN6libdnf12OptionNumberImEC2Emmm@Base 0.35.3
 _ZN6libdnf12OptionNumberImEC2EmmmOSt8functionIFmRKNSt7__cxx1112basic_stringIcSt11char_traitsIcESaIcEEEEE@Base 0.35.3
 _ZN6libdnf12OptionNumberImED0Ev@Base 0.35.3
 _ZN6libdnf12OptionNumberImED1Ev@Base 0.35.3
 _ZN6libdnf12OptionNumberImED2Ev@Base 0.35.3
 _ZN6libdnf12OptionString3setENS_6Option8PriorityERKNSt7__cxx1112basic_stringIcSt11char_traitsIcESaIcEEE@Base 0.35.3
 _ZN6libdnf12OptionStringC1EPKc@Base 0.35.3
 _ZN6libdnf12OptionStringC1EPKcRKNSt7__cxx1112basic_stringIcSt11char_traitsIcESaIcEEEb@Base 0.35.3
 _ZN6libdnf12OptionStringC1ERKNSt7__cxx1112basic_stringIcSt11char_traitsIcESaIcEEE@Base 0.35.3
 _ZN6libdnf12OptionStringC1ERKNSt7__cxx1112basic_stringIcSt11char_traitsIcESaIcEEES8_b@Base 0.35.3
 _ZN6libdnf12OptionStringC2EPKc@Base 0.35.3
 _ZN6libdnf12OptionStringC2EPKcRKNSt7__cxx1112basic_stringIcSt11char_traitsIcESaIcEEEb@Base 0.35.3
 _ZN6libdnf12OptionStringC2ERKNSt7__cxx1112basic_stringIcSt11char_traitsIcESaIcEEE@Base 0.35.3
 _ZN6libdnf12OptionStringC2ERKNSt7__cxx1112basic_stringIcSt11char_traitsIcESaIcEEES8_b@Base 0.35.3
 _ZN6libdnf12OptionStringD0Ev@Base 0.35.3
 _ZN6libdnf12OptionStringD1Ev@Base 0.35.3
 _ZN6libdnf12OptionStringD2Ev@Base 0.35.3
 _ZN6libdnf12getUserAgentERKSt3mapINSt7__cxx1112basic_stringIcSt11char_traitsIcESaIcEEES6_St4lessIS6_ESaISt4pairIKS6_S6_EEE@Base 0.35.3
 _ZN6libdnf12swdb_private11Transaction20addConsoleOutputLineEiRKNSt7__cxx1112basic_stringIcSt11char_traitsIcESaIcEEE@Base 0.35.3
 _ZN6libdnf12swdb_private11Transaction24addSoftwarePerformedWithESt10shared_ptrINS_7RPMItemEE@Base 0.35.3
 _ZN6libdnf12swdb_private11Transaction5beginEv@Base 0.35.3
 _ZN6libdnf12swdb_private11Transaction6finishENS_16TransactionStateE@Base 0.35.3
 _ZN6libdnf12swdb_private11Transaction7addItemESt10shared_ptrINS_4ItemEERKNSt7__cxx1112basic_stringIcSt11char_traitsIcESaIcEEENS_21TransactionItemActionENS_21TransactionItemReasonE@Base 0.35.3
 _ZN6libdnf12swdb_private11Transaction8dbInsertEv@Base 0.35.3
 _ZN6libdnf12swdb_private11Transaction8dbUpdateEv@Base 0.35.3
 _ZN6libdnf12swdb_private11Transaction8getItemsEv@Base 0.35.3
 _ZN6libdnf12swdb_private11Transaction9saveItemsEv@Base 0.35.3
 _ZN6libdnf12swdb_private11TransactionC1ESt10shared_ptrI7SQLite3E@Base 0.35.3
 _ZN6libdnf12swdb_private11TransactionC2ESt10shared_ptrI7SQLite3E@Base 0.35.3
 _ZN6libdnf12swdb_private4Repo16dbSelectOrInsertEv@Base 0.35.3
 _ZN6libdnf12swdb_private4Repo4saveEv@Base 0.35.3
 _ZN6libdnf12swdb_private4Repo5cacheB5cxx11E@Base 0.35.3
 _ZN6libdnf12swdb_private4Repo8dbInsertEv@Base 0.35.3
 _ZN6libdnf12swdb_private4Repo9getCachedESt10shared_ptrI7SQLite3ERKNSt7__cxx1112basic_stringIcSt11char_traitsIcESaIcEEE@Base 0.35.3
 _ZN6libdnf12swdb_private4RepoC1ESt10shared_ptrI7SQLite3E@Base 0.35.3
 _ZN6libdnf12swdb_private4RepoC2ESt10shared_ptrI7SQLite3E@Base 0.35.3
 _ZN6libdnf13ModulePackage17addStreamConflictEPKS0_@Base 0.35.3
 _ZN6libdnf13ModulePackage22createPlatformSolvableEP8_DnfSackRKNSt7__cxx1112basic_stringIcSt11char_traitsIcESaIcEEES8_PKc@Base 0.35.3
 _ZN6libdnf13ModulePackage22createPlatformSolvableEP8_DnfSackS2_RKSt6vectorINSt7__cxx1112basic_stringIcSt11char_traitsIcESaIcEEESaIS9_EES9_PKc@Base 0.35.3
 _ZN6libdnf13ModulePackageC1EP8_DnfSackP5_RepoONS_14ModuleMetadataERKNSt7__cxx1112basic_stringIcSt11char_traitsIcESaIcEEE@Base 0.35.3
 _ZN6libdnf13ModulePackageC2EP8_DnfSackP5_RepoONS_14ModuleMetadataERKNSt7__cxx1112basic_stringIcSt11char_traitsIcESaIcEEE@Base 0.35.3
 _ZN6libdnf13ModulePackageD1Ev@Base 0.35.3
 _ZN6libdnf13ModulePackageD2Ev@Base 0.35.3
 _ZN6libdnf13ModuleProfileC1EP16_ModulemdProfile@Base 0.35.3
 _ZN6libdnf13ModuleProfileC2EP16_ModulemdProfile@Base 0.35.3
 _ZN6libdnf13OptionSeconds3setENS_6Option8PriorityERKNSt7__cxx1112basic_stringIcSt11char_traitsIcESaIcEEE@Base 0.35.3
 _ZN6libdnf13OptionSecondsC1Ei@Base 0.35.3
 _ZN6libdnf13OptionSecondsC1Eii@Base 0.35.3
 _ZN6libdnf13OptionSecondsC1Eiii@Base 0.35.3
 _ZN6libdnf13OptionSecondsC2Ei@Base 0.35.3
 _ZN6libdnf13OptionSecondsC2Eii@Base 0.35.3
 _ZN6libdnf13OptionSecondsC2Eiii@Base 0.35.3
 _ZN6libdnf13OptionSecondsD0Ev@Base 0.35.3
 _ZN6libdnf13OptionSecondsD1Ev@Base 0.35.3
 _ZN6libdnf13OptionSecondsD2Ev@Base 0.35.3
 _ZN6libdnf13PackageTarget12checksumTypeERKNSt7__cxx1112basic_stringIcSt11char_traitsIcESaIcEEE@Base 0.35.3
 _ZN6libdnf13PackageTarget12getCallbacksEv@Base 0.35.3
 _ZN6libdnf13PackageTarget16downloadPackagesERSt6vectorIPS0_SaIS2_EEb@Base 0.35.3
 _ZN6libdnf13PackageTarget4Impl10progressCBEPvdd@Base 0.35.3
 _ZN6libdnf13PackageTarget4Impl15mirrorFailureCBEPvPKcS4_@Base 0.35.3
 _ZN6libdnf13PackageTarget4Impl4initEP9_LrHandlePKcS5_iS5_lS5_bll@Base 0.35.3
 _ZN6libdnf13PackageTarget4Impl5endCBEPv16LrTransferStatusPKc@Base 0.35.3
 _ZN6libdnf13PackageTarget4ImplC1EPNS_10ConfigMainEPKcS5_iS5_lS5_bllPNS_15PackageTargetCBEPS5_@Base 0.35.3
 _ZN6libdnf13PackageTarget4ImplC1EPNS_4RepoEPKcS5_iS5_lS5_bllPNS_15PackageTargetCBE@Base 0.35.3
 _ZN6libdnf13PackageTarget4ImplC2EPNS_10ConfigMainEPKcS5_iS5_lS5_bllPNS_15PackageTargetCBEPS5_@Base 0.35.3
 _ZN6libdnf13PackageTarget4ImplC2EPNS_4RepoEPKcS5_iS5_lS5_bllPNS_15PackageTargetCBE@Base 0.35.3
 _ZN6libdnf13PackageTarget4ImplD1Ev@Base 0.35.3
 _ZN6libdnf13PackageTarget4ImplD2Ev@Base 0.35.3
 _ZN6libdnf13PackageTarget6getErrEv@Base 0.35.3
 _ZN6libdnf13PackageTargetC1EPNS_10ConfigMainEPKcS4_iS4_lS4_bllPNS_15PackageTargetCBEPS4_@Base 0.35.3
 _ZN6libdnf13PackageTargetC1EPNS_4RepoEPKcS4_iS4_lS4_bllPNS_15PackageTargetCBE@Base 0.35.3
 _ZN6libdnf13PackageTargetC2EPNS_10ConfigMainEPKcS4_iS4_lS4_bllPNS_15PackageTargetCBEPS4_@Base 0.35.3
 _ZN6libdnf13PackageTargetC2EPNS_4RepoEPKcS4_iS4_lS4_bllPNS_15PackageTargetCBE@Base 0.35.3
 _ZN6libdnf13PackageTargetD1Ev@Base 0.35.3
 _ZN6libdnf13PackageTargetD2Ev@Base 0.35.3
 _ZN6libdnf14AdvisoryModule7getSackEv@Base 0.35.3
 _ZN6libdnf14AdvisoryModule7nsvcaEQERS0_@Base 0.35.3
 _ZN6libdnf14AdvisoryModuleC1EOS0_@Base 0.35.3
 _ZN6libdnf14AdvisoryModuleC1EP8_DnfSackiiiiii@Base 0.35.3
 _ZN6libdnf14AdvisoryModuleC1ERKS0_@Base 0.35.3
 _ZN6libdnf14AdvisoryModuleC2EOS0_@Base 0.35.3
 _ZN6libdnf14AdvisoryModuleC2EP8_DnfSackiiiiii@Base 0.35.3
 _ZN6libdnf14AdvisoryModuleC2ERKS0_@Base 0.35.3
 _ZN6libdnf14AdvisoryModuleD1Ev@Base 0.35.3
 _ZN6libdnf14AdvisoryModuleD2Ev@Base 0.35.3
 _ZN6libdnf14AdvisoryModuleaSEOS0_@Base 0.35.3
 _ZN6libdnf14AdvisoryModuleaSERKS0_@Base 0.35.3
 _ZN6libdnf14CompressedFile10getContentB5cxx11Ev@Base 0.35.3
 _ZN6libdnf14CompressedFile4openEPKc@Base 0.35.3
 _ZN6libdnf14CompressedFileC1ERKNSt7__cxx1112basic_stringIcSt11char_traitsIcESaIcEEE@Base 0.35.3
 _ZN6libdnf14CompressedFileC2ERKNSt7__cxx1112basic_stringIcSt11char_traitsIcESaIcEEE@Base 0.35.3
 _ZN6libdnf14CompressedFileD0Ev@Base 0.35.3
 _ZN6libdnf14CompressedFileD1Ev@Base 0.35.3
 _ZN6libdnf14CompressedFileD2Ev@Base 0.35.3
 _ZN6libdnf14CompsGroupItem10addPackageENSt7__cxx1112basic_stringIcSt11char_traitsIcESaIcEEEbNS_16CompsPackageTypeE@Base 0.35.3
 _ZN6libdnf14CompsGroupItem11getPackagesEv@Base 0.35.3
 _ZN6libdnf14CompsGroupItem12loadPackagesEv@Base 0.35.3
 _ZN6libdnf14CompsGroupItem18getTransactionItemESt10shared_ptrI7SQLite3ERKNSt7__cxx1112basic_stringIcSt11char_traitsIcESaIcEEE@Base 0.35.3
 _ZN6libdnf14CompsGroupItem19getTransactionItemsESt10shared_ptrI7SQLite3El@Base 0.35.3
 _ZN6libdnf14CompsGroupItem28getTransactionItemsByPatternESt10shared_ptrI7SQLite3ERKNSt7__cxx1112basic_stringIcSt11char_traitsIcESaIcEEE@Base 0.35.3
 _ZN6libdnf14CompsGroupItem4saveEv@Base 0.35.3
 _ZN6libdnf14CompsGroupItem8dbInsertEv@Base 0.35.3
 _ZN6libdnf14CompsGroupItem8dbSelectEl@Base 0.35.3
 _ZN6libdnf14CompsGroupItemC1ESt10shared_ptrI7SQLite3E@Base 0.35.3
 _ZN6libdnf14CompsGroupItemC1ESt10shared_ptrI7SQLite3El@Base 0.35.3
 _ZN6libdnf14CompsGroupItemC2ESt10shared_ptrI7SQLite3E@Base 0.35.3
 _ZN6libdnf14CompsGroupItemC2ESt10shared_ptrI7SQLite3El@Base 0.35.3
 _ZN6libdnf14CompsGroupItemD0Ev@Base 0.35.3
 _ZN6libdnf14CompsGroupItemD1Ev@Base 0.35.3
 _ZN6libdnf14CompsGroupItemD2Ev@Base 0.35.3
 _ZN6libdnf14ModuleMetadata14reportFailuresEPK10_GPtrArray@Base 0.35.3
 _ZN6libdnf14ModuleMetadata18metadataFromStringERKNSt7__cxx1112basic_stringIcSt11char_traitsIcESaIcEEE@Base 0.35.3
 _ZN6libdnf14ModuleMetadata18wrapModulemdModuleEP10_GPtrArray@Base 0.35.3
 _ZN6libdnf14ModuleMetadataC1EOSt10unique_ptrI15_ModulemdModuleSt14default_deleteIS2_EE@Base 0.35.3
 _ZN6libdnf14ModuleMetadataC2EOSt10unique_ptrI15_ModulemdModuleSt14default_deleteIS2_EE@Base 0.35.3
 _ZN6libdnf14ModuleMetadataD1Ev@Base 0.35.3
 _ZN6libdnf14ModuleMetadataD2Ev@Base 0.35.3
 _ZN6libdnf15LrHandleLogDataD1Ev@Base 0.35.3
 _ZN6libdnf15LrHandleLogDataD2Ev@Base 0.35.3
 _ZN6libdnf15PackageTargetCB13mirrorFailureEPKcS2_@Base 0.35.3
 _ZN6libdnf15PackageTargetCB3endENS0_14TransferStatusEPKc@Base 0.35.3
 _ZN6libdnf15PackageTargetCB8progressEdd@Base 0.35.3
 _ZN6libdnf15PackageTargetCBD0Ev@Base 0.35.3
 _ZN6libdnf15PackageTargetCBD1Ev@Base 0.35.3
 _ZN6libdnf15PackageTargetCBD2Ev@Base 0.35.3
 _ZN6libdnf15TransactionItem14saveReplacedByEv@Base 0.35.3
 _ZN6libdnf15TransactionItem4saveEv@Base 0.35.3
 _ZN6libdnf15TransactionItem8dbInsertEv@Base 0.35.3
 _ZN6libdnf15TransactionItem8dbUpdateEv@Base 0.35.3
 _ZN6libdnf15TransactionItem9saveStateEv@Base 0.35.3
 _ZN6libdnf15TransactionItemC1EPNS_11TransactionE@Base 0.35.3
 _ZN6libdnf15TransactionItemC1ESt10shared_ptrI7SQLite3El@Base 0.35.3
 _ZN6libdnf15TransactionItemC2EPNS_11TransactionE@Base 0.35.3
 _ZN6libdnf15TransactionItemC2ESt10shared_ptrI7SQLite3El@Base 0.35.3
 _ZN6libdnf16OptionStringList3setENS_6Option8PriorityERKNSt7__cxx1112basic_stringIcSt11char_traitsIcESaIcEEE@Base 0.35.3
 _ZN6libdnf16OptionStringList3setENS_6Option8PriorityERKSt6vectorINSt7__cxx1112basic_stringIcSt11char_traitsIcESaIcEEESaIS9_EE@Base 0.35.3
 _ZN6libdnf16OptionStringListC1ERKNSt7__cxx1112basic_stringIcSt11char_traitsIcESaIcEEE@Base 0.35.3
 _ZN6libdnf16OptionStringListC1ERKNSt7__cxx1112basic_stringIcSt11char_traitsIcESaIcEEES8_b@Base 0.35.3
 _ZN6libdnf16OptionStringListC1ERKSt6vectorINSt7__cxx1112basic_stringIcSt11char_traitsIcESaIcEEESaIS7_EE@Base 0.35.3
 _ZN6libdnf16OptionStringListC1ERKSt6vectorINSt7__cxx1112basic_stringIcSt11char_traitsIcESaIcEEESaIS7_EERKS7_b@Base 0.35.3
 _ZN6libdnf16OptionStringListC2ERKNSt7__cxx1112basic_stringIcSt11char_traitsIcESaIcEEE@Base 0.35.3
 _ZN6libdnf16OptionStringListC2ERKNSt7__cxx1112basic_stringIcSt11char_traitsIcESaIcEEES8_b@Base 0.35.3
 _ZN6libdnf16OptionStringListC2ERKSt6vectorINSt7__cxx1112basic_stringIcSt11char_traitsIcESaIcEEESaIS7_EE@Base 0.35.3
 _ZN6libdnf16OptionStringListC2ERKSt6vectorINSt7__cxx1112basic_stringIcSt11char_traitsIcESaIcEEESaIS7_EERKS7_b@Base 0.35.3
 _ZN6libdnf16OptionStringListD0Ev@Base 0.35.3
 _ZN6libdnf16OptionStringListD1Ev@Base 0.35.3
 _ZN6libdnf16OptionStringListD2Ev@Base 0.35.3
 _ZN6libdnf16getOsReleaseDataERKSt6vectorINSt7__cxx1112basic_stringIcSt11char_traitsIcESaIcEEESaIS6_EE@Base 0.35.3
 _ZN6libdnf17CompsGroupPackage16dbSelectOrInsertEv@Base 0.35.3
 _ZN6libdnf17CompsGroupPackage4saveEv@Base 0.35.3
 _ZN6libdnf17CompsGroupPackage8dbInsertEv@Base 0.35.3
 _ZN6libdnf17CompsGroupPackage8dbUpdateEv@Base 0.35.3
 _ZN6libdnf17CompsGroupPackageC1ERNS_14CompsGroupItemE@Base 0.35.3
 _ZN6libdnf17CompsGroupPackageC2ERNS_14CompsGroupItemE@Base 0.35.3
 _ZN6libdnf17MergedTransaction12resolveEraseERNS0_8ItemPairESt10shared_ptrINS_19TransactionItemBaseEE@Base 0.35.3
 _ZN6libdnf17MergedTransaction14resolveAlteredERNS0_8ItemPairESt10shared_ptrINS_19TransactionItemBaseEE@Base 0.35.3
 _ZN6libdnf17MergedTransaction16getConsoleOutputB5cxx11Ev@Base 0.35.3
 _ZN6libdnf17MergedTransaction20resolveRPMDifferenceERNS0_8ItemPairESt10shared_ptrINS_19TransactionItemBaseEE@Base 0.35.3
 _ZN6libdnf17MergedTransaction5mergeESt10shared_ptrINS_11TransactionEE@Base 0.35.3
 _ZN6libdnf17MergedTransaction8ItemPairD1Ev@Base 0.35.3
 _ZN6libdnf17MergedTransaction8ItemPairD2Ev@Base 0.35.3
 _ZN6libdnf17MergedTransaction8getItemsEv@Base 0.35.3
 _ZN6libdnf17MergedTransaction9mergeItemERSt3mapINSt7__cxx1112basic_stringIcSt11char_traitsIcESaIcEEENS0_8ItemPairESt4lessIS7_ESaISt4pairIKS7_S8_EEESt10shared_ptrINS_19TransactionItemBaseEE@Base 0.35.3
 _ZN6libdnf17MergedTransactionC1ESt10shared_ptrINS_11TransactionEE@Base 0.35.3
 _ZN6libdnf17MergedTransactionC2ESt10shared_ptrINS_11TransactionEE@Base 0.35.3
 _ZN6libdnf18DependencySplitter5parseEPKc@Base 0.35.3
 _ZN6libdnf18ModuleDependenciesC1EP21_ModulemdDependencies@Base 0.35.3
 _ZN6libdnf18ModuleDependenciesC1Ev@Base 0.35.3
 _ZN6libdnf18ModuleDependenciesC2EP21_ModulemdDependencies@Base 0.35.3
 _ZN6libdnf18ModuleDependenciesC2Ev@Base 0.35.3
 _ZN6libdnf19DependencyContainer17addReldepWithGlobEPKc@Base 0.35.3
 _ZN6libdnf19DependencyContainer3addEPNS_10DependencyE@Base 0.35.3
 _ZN6libdnf19DependencyContainer3addEi@Base 0.35.3
 _ZN6libdnf19DependencyContainer6extendEPS0_@Base 0.35.3
 _ZN6libdnf19DependencyContainer9addReldepEPKc@Base 0.35.3
 _ZN6libdnf19DependencyContainerC1EP8_DnfSack6_Queue@Base 0.35.3
 _ZN6libdnf19DependencyContainerC1EP8_DnfSack@Base 0.35.3
 _ZN6libdnf19DependencyContainerC1ERKS0_@Base 0.35.3
 _ZN6libdnf19DependencyContainerC2EP8_DnfSack6_Queue@Base 0.35.3
 _ZN6libdnf19DependencyContainerC2EP8_DnfSack@Base 0.35.3
 _ZN6libdnf19DependencyContainerC2ERKS0_@Base 0.35.3
 _ZN6libdnf19DependencyContainerD1Ev@Base 0.35.3
 _ZN6libdnf19DependencyContainerD2Ev@Base 0.35.3
 _ZN6libdnf19DependencyContaineraSEOS0_@Base 0.35.3
 _ZN6libdnf19TransactionItemBase13getActionNameB5cxx11Ev@Base 0.35.3
 _ZN6libdnf19TransactionItemBase14getActionShortB5cxx11Ev@Base 0.35.3
 _ZN6libdnf20CompsEnvironmentItem10loadGroupsEv@Base 0.35.3
 _ZN6libdnf20CompsEnvironmentItem18getTransactionItemESt10shared_ptrI7SQLite3ERKNSt7__cxx1112basic_stringIcSt11char_traitsIcESaIcEEE@Base 0.35.3
 _ZN6libdnf20CompsEnvironmentItem19getTransactionItemsESt10shared_ptrI7SQLite3El@Base 0.35.3
 _ZN6libdnf20CompsEnvironmentItem28getTransactionItemsByPatternESt10shared_ptrI7SQLite3ERKNSt7__cxx1112basic_stringIcSt11char_traitsIcESaIcEEE@Base 0.35.3
 _ZN6libdnf20CompsEnvironmentItem4saveEv@Base 0.35.3
 _ZN6libdnf20CompsEnvironmentItem8addGroupENSt7__cxx1112basic_stringIcSt11char_traitsIcESaIcEEEbNS_16CompsPackageTypeE@Base 0.35.3
 _ZN6libdnf20CompsEnvironmentItem8dbInsertEv@Base 0.35.3
 _ZN6libdnf20CompsEnvironmentItem8dbSelectEl@Base 0.35.3
 _ZN6libdnf20CompsEnvironmentItem9getGroupsEv@Base 0.35.3
 _ZN6libdnf20CompsEnvironmentItemC1ESt10shared_ptrI7SQLite3E@Base 0.35.3
 _ZN6libdnf20CompsEnvironmentItemC1ESt10shared_ptrI7SQLite3El@Base 0.35.3
 _ZN6libdnf20CompsEnvironmentItemC2ESt10shared_ptrI7SQLite3E@Base 0.35.3
 _ZN6libdnf20CompsEnvironmentItemC2ESt10shared_ptrI7SQLite3El@Base 0.35.3
 _ZN6libdnf20CompsEnvironmentItemD0Ev@Base 0.35.3
 _ZN6libdnf20CompsEnvironmentItemD1Ev@Base 0.35.3
 _ZN6libdnf20CompsEnvironmentItemD2Ev@Base 0.35.3
 _ZN6libdnf20haveFilesSameContentEPKcS1_@Base 0.35.3
 _ZN6libdnf20isAdvisoryApplicableERNS_8AdvisoryEP8_DnfSack@Base 0.35.3
 _ZN6libdnf21CompsEnvironmentGroup4saveEv@Base 0.35.3
 _ZN6libdnf21CompsEnvironmentGroup8dbInsertEv@Base 0.35.3
 _ZN6libdnf21CompsEnvironmentGroupC1ERNS_20CompsEnvironmentItemE@Base 0.35.3
 _ZN6libdnf21CompsEnvironmentGroupC2ERNS_20CompsEnvironmentItemE@Base 0.35.3
 _ZN6libdnf22ModulePackageContainer10isDisabledEPKNS_13ModulePackageE@Base 0.35.3
 _ZN6libdnf22ModulePackageContainer10isDisabledERKNSt7__cxx1112basic_stringIcSt11char_traitsIcESaIcEEE@Base 0.35.3
 _ZN6libdnf22ModulePackageContainer14getModuleStateERKNSt7__cxx1112basic_stringIcSt11char_traitsIcESaIcEEE@Base 0.35.3
 _ZN6libdnf22ModulePackageContainer14isModuleActiveEPKNS_13ModulePackageE@Base 0.35.3
 _ZN6libdnf22ModulePackageContainer14isModuleActiveEi@Base 0.35.3
 _ZN6libdnf22ModulePackageContainer15getResetModulesB5cxx11Ev@Base 0.35.3
 _ZN6libdnf22ModulePackageContainer15getResetStreamsB5cxx11Ev@Base 0.35.3
 _ZN6libdnf22ModulePackageContainer16getEnabledStreamERKNSt7__cxx1112basic_stringIcSt11char_traitsIcESaIcEEE@Base 0.35.3
 _ZN6libdnf22ModulePackageContainer16getModulePackageEi@Base 0.35.3
 _ZN6libdnf22ModulePackageContainer16loadFailSafeDataEv@Base 0.35.3
 _ZN6libdnf22ModulePackageContainer17NoModuleExceptionD0Ev@Base 0.35.3
 _ZN6libdnf22ModulePackageContainer17NoModuleExceptionD1Ev@Base 0.35.3
 _ZN6libdnf22ModulePackageContainer17NoModuleExceptionD2Ev@Base 0.35.3
 _ZN6libdnf22ModulePackageContainer17getEnabledStreamsB5cxx11Ev@Base 0.35.3
 _ZN6libdnf22ModulePackageContainer17getModulePackagesEv@Base 0.35.3
 _ZN6libdnf22ModulePackageContainer18addPlatformPackageEP8_DnfSackRKSt6vectorINSt7__cxx1112basic_stringIcSt11char_traitsIcESaIcEEESaIS9_EEPKc@Base 0.35.3
 _ZN6libdnf22ModulePackageContainer18addPlatformPackageERKNSt7__cxx1112basic_stringIcSt11char_traitsIcESaIcEEEPKc@Base 0.35.3
 _ZN6libdnf22ModulePackageContainer18getDefaultProfilesENSt7__cxx1112basic_stringIcSt11char_traitsIcESaIcEEES6_@Base 0.35.3
 _ZN6libdnf22ModulePackageContainer18getDisabledModulesB5cxx11Ev@Base 0.35.3
 _ZN6libdnf22ModulePackageContainer18getDisabledStreamsB5cxx11Ev@Base 0.35.3
 _ZN6libdnf22ModulePackageContainer18getRemovedProfilesB5cxx11Ev@Base 0.35.3
 _ZN6libdnf22ModulePackageContainer18getSwitchedStreamsB5cxx11Ev@Base 0.35.3
 _ZN6libdnf22ModulePackageContainer18updateFailSafeDataEv@Base 0.35.3
 _ZN6libdnf22ModulePackageContainer19addDefaultsFromDiskEv@Base 0.35.3
 _ZN6libdnf22ModulePackageContainer20enableDependencyTreeERSt6vectorIPNS_13ModulePackageESaIS3_EE@Base 0.35.3
 _ZN6libdnf22ModulePackageContainer20getInstalledPkgNamesB5cxx11Ev@Base 0.35.3
 _ZN6libdnf22ModulePackageContainer20getInstalledProfilesB5cxx11Ev@Base 0.35.3
 _ZN6libdnf22ModulePackageContainer20getInstalledProfilesENSt7__cxx1112basic_stringIcSt11char_traitsIcESaIcEEE@Base 0.35.3
 _ZN6libdnf22ModulePackageContainer21moduleDefaultsResolveEv@Base 0.35.3
 _ZN6libdnf22ModulePackageContainer23getLatestModulesPerRepoENS0_11ModuleStateESt6vectorIPNS_13ModulePackageESaIS4_EE@Base 0.35.3
 _ZN6libdnf22ModulePackageContainer24requiresModuleEnablementERKNS_10PackageSetE@Base 0.35.3
 _ZN6libdnf22ModulePackageContainer27resolveActiveModulePackagesB5cxx11Eb@Base 0.35.3
 _ZN6libdnf22ModulePackageContainer29createConflictsBetweenStreamsEv@Base 0.35.3
 _ZN6libdnf22ModulePackageContainer30EnableMultipleStreamsExceptionC1ERKNSt7__cxx1112basic_stringIcSt11char_traitsIcESaIcEEE@Base 0.35.3
 _ZN6libdnf22ModulePackageContainer30EnableMultipleStreamsExceptionC2ERKNSt7__cxx1112basic_stringIcSt11char_traitsIcESaIcEEE@Base 0.35.3
 _ZN6libdnf22ModulePackageContainer30EnableMultipleStreamsExceptionD0Ev@Base 0.35.3
 _ZN6libdnf22ModulePackageContainer30EnableMultipleStreamsExceptionD1Ev@Base 0.35.3
 _ZN6libdnf22ModulePackageContainer30EnableMultipleStreamsExceptionD2Ev@Base 0.35.3
 _ZN6libdnf22ModulePackageContainer3addEP8_DnfSack@Base 0.35.3
 _ZN6libdnf22ModulePackageContainer3addERKNSt7__cxx1112basic_stringIcSt11char_traitsIcESaIcEEES8_@Base 0.35.3
 _ZN6libdnf22ModulePackageContainer4Impl11moduleSolveB5cxx11ERKSt6vectorIPNS_13ModulePackageESaIS4_EEb@Base 0.35.3
 _ZN6libdnf22ModulePackageContainer4Impl15ModulePersistor10addProfileERKNSt7__cxx1112basic_stringIcSt11char_traitsIcESaIcEEESA_@Base 0.35.3
 _ZN6libdnf22ModulePackageContainer4Impl15ModulePersistor11changeStateERKNSt7__cxx1112basic_stringIcSt11char_traitsIcESaIcEEENS0_11ModuleStateE@Base 0.35.3
 _ZN6libdnf22ModulePackageContainer4Impl15ModulePersistor11getProfilesERKNSt7__cxx1112basic_stringIcSt11char_traitsIcESaIcEEE@Base 0.35.3
 _ZN6libdnf22ModulePackageContainer4Impl15ModulePersistor12changeStreamERKNSt7__cxx1112basic_stringIcSt11char_traitsIcESaIcEEESA_@Base 0.35.3
 _ZN6libdnf22ModulePackageContainer4Impl15ModulePersistor13removeProfileERKNSt7__cxx1112basic_stringIcSt11char_traitsIcESaIcEEESA_@Base 0.35.3
 _ZN6libdnf22ModulePackageContainer4Impl15ModulePersistor15getResetModulesB5cxx11Ev@Base 0.35.3
 _ZN6libdnf22ModulePackageContainer4Impl15ModulePersistor15getResetStreamsB5cxx11Ev@Base 0.35.3
 _ZN6libdnf22ModulePackageContainer4Impl15ModulePersistor17getAllModuleNamesB5cxx11Ev@Base 0.35.3
 _ZN6libdnf22ModulePackageContainer4Impl15ModulePersistor17getEnabledStreamsB5cxx11Ev@Base 0.35.3
 _ZN6libdnf22ModulePackageContainer4Impl15ModulePersistor18getDisabledModulesB5cxx11Ev@Base 0.35.3
 _ZN6libdnf22ModulePackageContainer4Impl15ModulePersistor18getDisabledStreamsB5cxx11Ev@Base 0.35.3
 _ZN6libdnf22ModulePackageContainer4Impl15ModulePersistor18getRemovedProfilesB5cxx11Ev@Base 0.35.3
 _ZN6libdnf22ModulePackageContainer4Impl15ModulePersistor18getSwitchedStreamsB5cxx11Ev@Base 0.35.3
 _ZN6libdnf22ModulePackageContainer4Impl15ModulePersistor20getInstalledProfilesB5cxx11Ev@Base 0.35.3
 _ZN6libdnf22ModulePackageContainer4Impl15ModulePersistor4saveERKNSt7__cxx1112basic_stringIcSt11char_traitsIcESaIcEEESA_@Base 0.35.3
 _ZN6libdnf22ModulePackageContainer4Impl15ModulePersistor5resetERKNSt7__cxx1112basic_stringIcSt11char_traitsIcESaIcEEE@Base 0.35.3
 _ZN6libdnf22ModulePackageContainer4Impl15ModulePersistor6ConfigD1Ev@Base 0.35.3
 _ZN6libdnf22ModulePackageContainer4Impl15ModulePersistor6ConfigD2Ev@Base 0.35.3
 _ZN6libdnf22ModulePackageContainer4Impl15ModulePersistor6insertERKNSt7__cxx1112basic_stringIcSt11char_traitsIcESaIcEEEPKc@Base 0.35.3
 _ZN6libdnf22ModulePackageContainer4Impl15ModulePersistor6updateERKNSt7__cxx1112basic_stringIcSt11char_traitsIcESaIcEEE@Base 0.35.3
 _ZN6libdnf22ModulePackageContainer4Impl15ModulePersistor8getEntryERKNSt7__cxx1112basic_stringIcSt11char_traitsIcESaIcEEE@Base 0.35.3
 _ZN6libdnf22ModulePackageContainer4Impl15ModulePersistor8getStateERKNSt7__cxx1112basic_stringIcSt11char_traitsIcESaIcEEE@Base 0.35.3
 _ZN6libdnf22ModulePackageContainer4Impl15ModulePersistor8rollbackEv@Base 0.35.3
 _ZN6libdnf22ModulePackageContainer4Impl15ModulePersistor9getStreamERKNSt7__cxx1112basic_stringIcSt11char_traitsIcESaIcEEE@Base 0.35.3
 _ZN6libdnf22ModulePackageContainer4Impl29getLatestActiveEnabledModulesEv@Base 0.35.3
 _ZN6libdnf22ModulePackageContainer4Impl9isEnabledERKNSt7__cxx1112basic_stringIcSt11char_traitsIcESaIcEEES9_@Base 0.35.3
 _ZN6libdnf22ModulePackageContainer4ImplC1Ev@Base 0.35.3
 _ZN6libdnf22ModulePackageContainer4ImplC2Ev@Base 0.35.3
 _ZN6libdnf22ModulePackageContainer4ImplD1Ev@Base 0.35.3
 _ZN6libdnf22ModulePackageContainer4ImplD2Ev@Base 0.35.3
 _ZN6libdnf22ModulePackageContainer4saveEv@Base 0.35.3
 _ZN6libdnf22ModulePackageContainer5queryENSt7__cxx1112basic_stringIcSt11char_traitsIcESaIcEEE@Base 0.35.3
 _ZN6libdnf22ModulePackageContainer5queryENSt7__cxx1112basic_stringIcSt11char_traitsIcESaIcEEES6_S6_S6_S6_@Base 0.35.3
 _ZN6libdnf22ModulePackageContainer5queryERNS_6NsvcapE@Base 0.35.3
 _ZN6libdnf22ModulePackageContainer5resetEPKNS_13ModulePackageE@Base 0.35.3
 _ZN6libdnf22ModulePackageContainer5resetERKNSt7__cxx1112basic_stringIcSt11char_traitsIcESaIcEEE@Base 0.35.3
 _ZN6libdnf22ModulePackageContainer6enableEPKNS_13ModulePackageE@Base 0.35.3
 _ZN6libdnf22ModulePackageContainer6enableERKNSt7__cxx1112basic_stringIcSt11char_traitsIcESaIcEEES8_@Base 0.35.3
 _ZN6libdnf22ModulePackageContainer7disableEPKNS_13ModulePackageE@Base 0.35.3
 _ZN6libdnf22ModulePackageContainer7disableERKNSt7__cxx1112basic_stringIcSt11char_traitsIcESaIcEEE@Base 0.35.3
 _ZN6libdnf22ModulePackageContainer7installEPKNS_13ModulePackageERKNSt7__cxx1112basic_stringIcSt11char_traitsIcESaIcEEE@Base 0.35.3
 _ZN6libdnf22ModulePackageContainer7installERKNSt7__cxx1112basic_stringIcSt11char_traitsIcESaIcEEES8_S8_@Base 0.35.3
 _ZN6libdnf22ModulePackageContainer8rollbackEv@Base 0.35.3
 _ZN6libdnf22ModulePackageContainer9ExceptionD0Ev@Base 0.35.3
 _ZN6libdnf22ModulePackageContainer9ExceptionD1Ev@Base 0.35.3
 _ZN6libdnf22ModulePackageContainer9ExceptionD2Ev@Base 0.35.3
 _ZN6libdnf22ModulePackageContainer9getReportB5cxx11Ev@Base 0.35.3
 _ZN6libdnf22ModulePackageContainer9isChangedEv@Base 0.35.3
 _ZN6libdnf22ModulePackageContainer9isEnabledEPKNS_13ModulePackageE@Base 0.35.3
 _ZN6libdnf22ModulePackageContainer9isEnabledERKNSt7__cxx1112basic_stringIcSt11char_traitsIcESaIcEEES8_@Base 0.35.3
 _ZN6libdnf22ModulePackageContainer9uninstallEPKNS_13ModulePackageERKNSt7__cxx1112basic_stringIcSt11char_traitsIcESaIcEEE@Base 0.35.3
 _ZN6libdnf22ModulePackageContainer9uninstallERKNSt7__cxx1112basic_stringIcSt11char_traitsIcESaIcEEES8_S8_@Base 0.35.3
 _ZN6libdnf22ModulePackageContainerC1EbNSt7__cxx1112basic_stringIcSt11char_traitsIcESaIcEEEPKcS8_@Base 0.35.3
 _ZN6libdnf22ModulePackageContainerC2EbNSt7__cxx1112basic_stringIcSt11char_traitsIcESaIcEEEPKcS8_@Base 0.35.3
 _ZN6libdnf22ModulePackageContainerD1Ev@Base 0.35.3
 _ZN6libdnf22ModulePackageContainerD2Ev@Base 0.35.3
 _ZN6libdnf23ModuleDefaultsContainer10fromStringERKNSt7__cxx1112basic_stringIcSt11char_traitsIcESaIcEEEi@Base 0.35.3
 _ZN6libdnf23ModuleDefaultsContainer12saveDefaultsEP10_GPtrArrayi@Base 0.35.3
 _ZN6libdnf23ModuleDefaultsContainer16ResolveExceptionD0Ev@Base 0.35.3
 _ZN6libdnf23ModuleDefaultsContainer16ResolveExceptionD1Ev@Base 0.35.3
 _ZN6libdnf23ModuleDefaultsContainer16ResolveExceptionD2Ev@Base 0.35.3
 _ZN6libdnf23ModuleDefaultsContainer17ConflictExceptionD0Ev@Base 0.35.3
 _ZN6libdnf23ModuleDefaultsContainer17ConflictExceptionD1Ev@Base 0.35.3
 _ZN6libdnf23ModuleDefaultsContainer17ConflictExceptionD2Ev@Base 0.35.3
 _ZN6libdnf23ModuleDefaultsContainer17getDefaultStreamsB5cxx11Ev@Base 0.35.3
 _ZN6libdnf23ModuleDefaultsContainer18getDefaultProfilesERNSt7__cxx1112basic_stringIcSt11char_traitsIcESaIcEEES7_@Base 0.35.3
 _ZN6libdnf23ModuleDefaultsContainer19getDefaultStreamForENSt7__cxx1112basic_stringIcSt11char_traitsIcESaIcEEE@Base 0.35.3
 _ZN6libdnf23ModuleDefaultsContainer22checkAndThrowExceptionINS0_16ResolveExceptionEEEvP7_GError@Base 0.35.3
 _ZN6libdnf23ModuleDefaultsContainer22checkAndThrowExceptionINS0_17ConflictExceptionEEEvP7_GError@Base 0.35.3
 _ZN6libdnf23ModuleDefaultsContainer7resolveEv@Base 0.35.3
 _ZN6libdnf23ModuleDefaultsContainer9ExceptionD0Ev@Base 0.35.3
 _ZN6libdnf23ModuleDefaultsContainer9ExceptionD1Ev@Base 0.35.3
 _ZN6libdnf23ModuleDefaultsContainer9ExceptionD2Ev@Base 0.35.3
 _ZN6libdnf23ModuleDefaultsContainerC1Ev@Base 0.35.3
 _ZN6libdnf23ModuleDefaultsContainerC2Ev@Base 0.35.3
 _ZN6libdnf24LrExceptionWithSourceUrlC1EiRKNSt7__cxx1112basic_stringIcSt11char_traitsIcESaIcEEES8_@Base 0.35.3
 _ZN6libdnf24LrExceptionWithSourceUrlC2EiRKNSt7__cxx1112basic_stringIcSt11char_traitsIcESaIcEEES8_@Base 0.35.3
 _ZN6libdnf24LrExceptionWithSourceUrlD0Ev@Base 0.35.3
 _ZN6libdnf24LrExceptionWithSourceUrlD1Ev@Base 0.35.3
 _ZN6libdnf24LrExceptionWithSourceUrlD2Ev@Base 0.35.3
 _ZN6libdnf30hy_query_to_name_ordered_queueEPNS_5QueryEPNS_7IdQueueE@Base 0.35.3
 _ZN6libdnf35hy_query_to_name_arch_ordered_queueEPNS_5QueryEPNS_7IdQueueE@Base 0.35.3
 _ZN6libdnf3Log9getLoggerEv@Base 0.35.3
 _ZN6libdnf3Log9setLoggerEPNS_6LoggerE@Base 0.35.3
 _ZN6libdnf4File10getContentB5cxx11Ev@Base 0.35.3
 _ZN6libdnf4File11IOExceptionD0Ev@Base 0.35.3
 _ZN6libdnf4File11IOExceptionD1Ev@Base 0.35.3
 _ZN6libdnf4File11IOExceptionD2Ev@Base 0.35.3
 _ZN6libdnf4File13OpenExceptionD0Ev@Base 0.35.3
 _ZN6libdnf4File13OpenExceptionD1Ev@Base 0.35.3
 _ZN6libdnf4File13OpenExceptionD2Ev@Base 0.35.3
 _ZN6libdnf4File14CloseExceptionD0Ev@Base 0.35.3
 _ZN6libdnf4File14CloseExceptionD1Ev@Base 0.35.3
 _ZN6libdnf4File14CloseExceptionD2Ev@Base 0.35.3
 _ZN6libdnf4File18NotOpenedExceptionC1ERKNSt7__cxx1112basic_stringIcSt11char_traitsIcESaIcEEE@Base 0.35.3
 _ZN6libdnf4File18NotOpenedExceptionC2ERKNSt7__cxx1112basic_stringIcSt11char_traitsIcESaIcEEE@Base 0.35.3
 _ZN6libdnf4File18NotOpenedExceptionD0Ev@Base 0.35.3
 _ZN6libdnf4File18NotOpenedExceptionD1Ev@Base 0.35.3
 _ZN6libdnf4File18NotOpenedExceptionD2Ev@Base 0.35.3
 _ZN6libdnf4File18ShortReadExceptionD0Ev@Base 0.35.3
 _ZN6libdnf4File18ShortReadExceptionD1Ev@Base 0.35.3
 _ZN6libdnf4File18ShortReadExceptionD2Ev@Base 0.35.3
 _ZN6libdnf4File4openEPKc@Base 0.35.3
 _ZN6libdnf4File4readEPcm@Base 0.35.3
 _ZN6libdnf4File5closeEv@Base 0.35.3
 _ZN6libdnf4File7newFileERKNSt7__cxx1112basic_stringIcSt11char_traitsIcESaIcEEE@Base 0.35.3
 _ZN6libdnf4File8readLineERNSt7__cxx1112basic_stringIcSt11char_traitsIcESaIcEEE@Base 0.35.3
 _ZN6libdnf4FileC1ERKNSt7__cxx1112basic_stringIcSt11char_traitsIcESaIcEEE@Base 0.35.3
 _ZN6libdnf4FileC2ERKNSt7__cxx1112basic_stringIcSt11char_traitsIcESaIcEEE@Base 0.35.3
 _ZN6libdnf4FileD0Ev@Base 0.35.3
 _ZN6libdnf4FileD1Ev@Base 0.35.3
 _ZN6libdnf4FileD2Ev@Base 0.35.3
 _ZN6libdnf4Goal10getActionsEv@Base 0.35.3
 _ZN6libdnf4Goal10hasActionsE14DnfGoalActions@Base 0.35.3
 _ZN6libdnf4Goal11distupgradeEP11_DnfPackage@Base 0.35.3
 _ZN6libdnf4Goal11distupgradeEPNS_8SelectorE@Base 0.35.3
 _ZN6libdnf4Goal11distupgradeEv@Base 0.35.3
 _ZN6libdnf4Goal12addProtectedERNS_10PackageSetE@Base 0.35.3
 _ZN6libdnf4Goal12listErasuresEv@Base 0.35.3
 _ZN6libdnf4Goal12listInstallsEv@Base 0.35.3
 _ZN6libdnf4Goal12listUnneededEv@Base 0.35.3
 _ZN6libdnf4Goal12listUpgradesEv@Base 0.35.3
 _ZN6libdnf4Goal12logDecisionsEv@Base 0.35.3
 _ZN6libdnf4Goal12setProtectedERKNS_10PackageSetE@Base 0.35.3
 _ZN6libdnf4Goal13countProblemsEv@Base 0.35.3
 _ZN6libdnf4Goal13listObsoletedEv@Base 0.35.3
 _ZN6libdnf4Goal13listSuggestedEv@Base 0.35.3
 _ZN6libdnf4Goal13userInstalledEP11_DnfPackage@Base 0.35.3
 _ZN6libdnf4Goal13userInstalledERNS_10PackageSetE@Base 0.35.3
 _ZN6libdnf4Goal14listDowngradesEv@Base 0.35.3
 _ZN6libdnf4Goal14listReinstallsEv@Base 0.35.3
 _ZN6libdnf4Goal14writeDebugdataEPKc@Base 0.35.3
 _ZN6libdnf4Goal16listConflictPkgsE15DnfPackageState@Base 0.35.3
 _ZN6libdnf4Goal20describeProblemRulesB5cxx11Ejb@Base 0.35.3
 _ZN6libdnf4Goal22listObsoletedByPackageEP11_DnfPackage@Base 0.35.3
 _ZN6libdnf4Goal23describeAllProblemRulesB5cxx11Eb@Base 0.35.3
 _ZN6libdnf4Goal24listBrokenDependencyPkgsE15DnfPackageState@Base 0.35.3
 _ZN6libdnf4Goal3runE14DnfGoalActions@Base 0.35.3
 _ZN6libdnf4Goal4Impl10initSolverEv@Base 0.35.3
 _ZN6libdnf4Goal4Impl11listResultsEii@Base 0.35.3
 _ZN6libdnf4Goal4Impl12conflictPkgsEj@Base 0.35.3
 _ZN6libdnf4Goal4Impl12constructJobE14DnfGoalActions@Base 0.35.3
 _ZN6libdnf4Goal4Impl13countProblemsEv@Base 0.35.3
 _ZN6libdnf4Goal4Impl19protectedInRemovalsEv@Base 0.35.3
 _ZN6libdnf4Goal4Impl20brokenDependencyPkgsEj@Base 0.35.3
 _ZN6libdnf4Goal4Impl23brokenDependencyAllPkgsE15DnfPackageState@Base 0.35.3
 _ZN6libdnf4Goal4Impl24describeProtectedRemovalB5cxx11Ev@Base 0.35.3
 _ZN6libdnf4Goal4Impl24limitInstallonlyPackagesEP7_SolverP6_Queue@Base 0.35.3
 _ZN6libdnf4Goal4Impl29allowUninstallAllButProtectedEP6_Queue14DnfGoalActions@Base 0.35.3
 _ZN6libdnf4Goal4Impl5solveEP6_Queue14DnfGoalActions@Base 0.35.3
 _ZN6libdnf4Goal4ImplC1EP8_DnfSack@Base 0.35.3
 _ZN6libdnf4Goal4ImplC1ERKS1_@Base 0.35.3
 _ZN6libdnf4Goal4ImplC2EP8_DnfSack@Base 0.35.3
 _ZN6libdnf4Goal4ImplC2ERKS1_@Base 0.35.3
 _ZN6libdnf4Goal4ImplD1Ev@Base 0.35.3
 _ZN6libdnf4Goal4ImplD2Ev@Base 0.35.3
 _ZN6libdnf4Goal5eraseEP11_DnfPackagei@Base 0.35.3
 _ZN6libdnf4Goal5eraseEPNS_8SelectorEi@Base 0.35.3
 _ZN6libdnf4Goal7getSackEv@Base 0.35.3
 _ZN6libdnf4Goal7installEP11_DnfPackageb@Base 0.35.3
 _ZN6libdnf4Goal7installEPNS_8SelectorEb@Base 0.35.3
 _ZN6libdnf4Goal7upgradeEP11_DnfPackage@Base 0.35.3
 _ZN6libdnf4Goal7upgradeEPNS_8SelectorE@Base 0.35.3
 _ZN6libdnf4Goal7upgradeEv@Base 0.35.3
 _ZN6libdnf4Goal9ExceptionD0Ev@Base 0.35.3
 _ZN6libdnf4Goal9ExceptionD1Ev@Base 0.35.3
 _ZN6libdnf4Goal9ExceptionD2Ev@Base 0.35.3
 _ZN6libdnf4Goal9getReasonEP11_DnfPackage@Base 0.35.3
 _ZN6libdnf4Goal9jobLengthEv@Base 0.35.3
 _ZN6libdnf4GoalC1EP8_DnfSack@Base 0.35.3
 _ZN6libdnf4GoalC1ERKS0_@Base 0.35.3
 _ZN6libdnf4GoalC2EP8_DnfSack@Base 0.35.3
 _ZN6libdnf4GoalC2ERKS0_@Base 0.35.3
 _ZN6libdnf4GoalD1Ev@Base 0.35.3
 _ZN6libdnf4GoalD2Ev@Base 0.35.3
 _ZN6libdnf4Item4saveEv@Base 0.35.3
 _ZN6libdnf4Item8dbInsertEv@Base 0.35.3
 _ZN6libdnf4ItemC1ESt10shared_ptrI7SQLite3E@Base 0.35.3
 _ZN6libdnf4ItemC2ESt10shared_ptrI7SQLite3E@Base 0.35.3
 _ZN6libdnf4ItemD0Ev@Base 0.35.3
 _ZN6libdnf4ItemD1Ev@Base 0.35.3
 _ZN6libdnf4ItemD2Ev@Base 0.35.3
 _ZN6libdnf4Repo10getCompsFnB5cxx11Ev@Base 0.35.3
 _ZN6libdnf4Repo11downloadUrlEPKci@Base 0.35.3
 _ZN6libdnf4Repo12getModulesFnB5cxx11Ev@Base 0.35.3
 _ZN6libdnf4Repo12setCallbacksEOSt10unique_ptrINS_6RepoCBESt14default_deleteIS2_EE@Base 0.35.3
 _ZN6libdnf4Repo13getDistroTagsB5cxx11Ev@Base 0.35.3
 _ZN6libdnf4Repo14getContentTagsB5cxx11Ev@Base 0.35.3
 _ZN6libdnf4Repo14setHttpHeadersEPPKc@Base 0.35.3
 _ZN6libdnf4Repo14setUseIncludesEb@Base 0.35.3
 _ZN6libdnf4Repo15getMaxTimestampEv@Base 0.35.3
 _ZN6libdnf4Repo15getMetadataPathERKNSt7__cxx1112basic_stringIcSt11char_traitsIcESaIcEEE@Base 0.35.3
 _ZN6libdnf4Repo15setRepoFilePathERKNSt7__cxx1112basic_stringIcSt11char_traitsIcESaIcEEE@Base 0.35.3
 _ZN6libdnf4Repo15setSyncStrategyENS0_12SyncStrategyE@Base 0.35.3
 _ZN6libdnf4Repo16downloadMetadataERKNSt7__cxx1112basic_stringIcSt11char_traitsIcESaIcEEE@Base 0.35.3
 _ZN6libdnf4Repo16setSubstitutionsERKSt3mapINSt7__cxx1112basic_stringIcSt11char_traitsIcESaIcEEES7_St4lessIS7_ESaISt4pairIKS7_S7_EEE@Base 0.35.3
 _ZN6libdnf4Repo17setMaxMirrorTriesEi@Base 0.35.3
 _ZN6libdnf4Repo18getMetadataContentERKNSt7__cxx1112basic_stringIcSt11char_traitsIcESaIcEEE@Base 0.35.3
 _ZN6libdnf4Repo20setLoadMetadataOtherEb@Base 0.35.3
 _ZN6libdnf4Repo21setPreserveRemoteTimeEb@Base 0.35.3
 _ZN6libdnf4Repo25addMetadataTypeToDownloadERKNSt7__cxx1112basic_stringIcSt11char_traitsIcESaIcEEE@Base 0.35.3
 _ZN6libdnf4Repo4Impl10progressCBEPvdd@Base 0.35.3
 _ZN6libdnf4Repo4Impl11downloadUrlEPKci@Base 0.35.3
 _ZN6libdnf4Repo4Impl14importRepoKeysEv@Base 0.35.3
 _ZN6libdnf4Repo4Impl14isRepomdInSyncEv@Base 0.35.3
 _ZN6libdnf4Repo4Impl14setHttpHeadersEPPKc@Base 0.35.3
 _ZN6libdnf4Repo4Impl15fastestMirrorCBEPv21LrFastestMirrorStagesS2_@Base 0.35.3
 _ZN6libdnf4Repo4Impl15getCachedHandleEv@Base 0.35.3
 _ZN6libdnf4Repo4Impl15lrHandlePerformEP9_LrHandleRKNSt7__cxx1112basic_stringIcSt11char_traitsIcESaIcEEEb@Base 0.35.3
 _ZN6libdnf4Repo4Impl15mirrorFailureCBEPvPKcS4_S4_@Base 0.35.3
 _ZN6libdnf4Repo4Impl16downloadMetadataERKNSt7__cxx1112basic_stringIcSt11char_traitsIcESaIcEEE@Base 0.35.3
 _ZN6libdnf4Repo4Impl16embedCountmeFlagERNSt7__cxx1112basic_stringIcSt11char_traitsIcESaIcEEE@Base 0.35.3
 _ZN6libdnf4Repo4Impl16isMetalinkInSyncEv@Base 0.35.3
 _ZN6libdnf4Repo4Impl16lrHandleInitBaseEv@Base 0.35.3
 _ZN6libdnf4Repo4Impl17attachLibsolvRepoEP5_Repo@Base 0.35.3
 _ZN6libdnf4Repo4Impl17detachLibsolvRepoEv@Base 0.35.3
 _ZN6libdnf4Repo4Impl17lrHandleInitLocalEv@Base 0.35.3
 _ZN6libdnf4Repo4Impl18lrHandleInitRemoteEPKcbb@Base 0.35.3
 _ZN6libdnf4Repo4Impl20resetMetadataExpiredEv@Base 0.35.3
 _ZN6libdnf4Repo4Impl4loadEv@Base 0.35.3
 _ZN6libdnf4Repo4Impl5fetchERKNSt7__cxx1112basic_stringIcSt11char_traitsIcESaIcEEEOSt10unique_ptrI9_LrHandleSt14default_deleteISB_EE@Base 0.35.3
 _ZN6libdnf4Repo4Impl6expireEv@Base 0.35.3
 _ZN6libdnf4Repo4Impl8isInSyncEv@Base 0.35.3
 _ZN6libdnf4Repo4Impl8retrieveERKNSt7__cxx1112basic_stringIcSt11char_traitsIcESaIcEEE@Base 0.35.3
 _ZN6libdnf4Repo4Impl9loadCacheEb@Base 0.35.3
 _ZN6libdnf4Repo4ImplC1ERS0_RKNSt7__cxx1112basic_stringIcSt11char_traitsIcESaIcEEENS0_4TypeEOSt10unique_ptrINS_10ConfigRepoESt14default_deleteISD_EE@Base 0.35.3
 _ZN6libdnf4Repo4ImplC2ERS0_RKNSt7__cxx1112basic_stringIcSt11char_traitsIcESaIcEEENS0_4TypeEOSt10unique_ptrINS_10ConfigRepoESt14default_deleteISD_EE@Base 0.35.3
 _ZN6libdnf4Repo4ImplD1Ev@Base 0.35.3
 _ZN6libdnf4Repo4ImplD2Ev@Base 0.35.3
 _ZN6libdnf4Repo4loadEv@Base 0.35.3
 _ZN6libdnf4Repo5freshEv@Base 0.35.3
 _ZN6libdnf4Repo6enableEv@Base 0.35.3
 _ZN6libdnf4Repo6expireEv@Base 0.35.3
 _ZN6libdnf4Repo7disableEv@Base 0.35.3
 _ZN6libdnf4Repo8verifyIdERKNSt7__cxx1112basic_stringIcSt11char_traitsIcESaIcEEE@Base 0.35.3
 _ZN6libdnf4Repo9getConfigEv@Base 0.35.3
 _ZN6libdnf4Repo9loadCacheEb@Base 0.35.3
 _ZN6libdnf4RepoC1ERKNSt7__cxx1112basic_stringIcSt11char_traitsIcESaIcEEEOSt10unique_ptrINS_10ConfigRepoESt14default_deleteISA_EENS0_4TypeE@Base 0.35.3
 _ZN6libdnf4RepoC2ERKNSt7__cxx1112basic_stringIcSt11char_traitsIcESaIcEEEOSt10unique_ptrINS_10ConfigRepoESt14default_deleteISA_EENS0_4TypeE@Base 0.35.3
 _ZN6libdnf4RepoD1Ev@Base 0.35.3
 _ZN6libdnf4RepoD2Ev@Base 0.35.3
 _ZN6libdnf4Swdb10getRPMRepoERKNSt7__cxx1112basic_stringIcSt11char_traitsIcESaIcEEE@Base 0.35.3
 _ZN6libdnf4Swdb11setItemDoneERKNSt7__cxx1112basic_stringIcSt11char_traitsIcESaIcEEE@Base 0.35.3
 _ZN6libdnf4Swdb13closeDatabaseEv@Base 0.35.3
 _ZN6libdnf4Swdb13createRPMItemEv@Base 0.35.3
 _ZN6libdnf4Swdb13resetDatabaseEv@Base 0.35.3
 _ZN6libdnf4Swdb13setReleaseverENSt7__cxx1112basic_stringIcSt11char_traitsIcESaIcEEE@Base 0.35.3
 _ZN6libdnf4Swdb14endTransactionElNSt7__cxx1112basic_stringIcSt11char_traitsIcESaIcEEENS_16TransactionStateE@Base 0.35.3
 _ZN6libdnf4Swdb15initTransactionEv@Base 0.35.3
 _ZN6libdnf4Swdb16beginTransactionElNSt7__cxx1112basic_stringIcSt11char_traitsIcESaIcEEES6_j@Base 0.35.3
 _ZN6libdnf4Swdb16closeTransactionEv@Base 0.35.3
 _ZN6libdnf4Swdb16listTransactionsEv@Base 0.35.3
 _ZN6libdnf4Swdb17getCompsGroupItemERKNSt7__cxx1112basic_stringIcSt11char_traitsIcESaIcEEE@Base 0.35.3
 _ZN6libdnf4Swdb18getLastTransactionEv@Base 0.35.3
 _ZN6libdnf4Swdb20addConsoleOutputLineEiNSt7__cxx1112basic_stringIcSt11char_traitsIcESaIcEEE@Base 0.35.3
 _ZN6libdnf4Swdb20createCompsGroupItemEv@Base 0.35.3
 _ZN6libdnf4Swdb21getPackageCompsGroupsERKNSt7__cxx1112basic_stringIcSt11char_traitsIcESaIcEEE@Base 0.35.3
 _ZN6libdnf4Swdb21getRPMTransactionItemERKNSt7__cxx1112basic_stringIcSt11char_traitsIcESaIcEEE@Base 0.35.3
 _ZN6libdnf4Swdb23getCompsEnvironmentItemERKNSt7__cxx1112basic_stringIcSt11char_traitsIcESaIcEEE@Base 0.35.3
 _ZN6libdnf4Swdb23searchTransactionsByRPMERKSt6vectorINSt7__cxx1112basic_stringIcSt11char_traitsIcESaIcEEESaIS7_EE@Base 0.35.3
 _ZN6libdnf4Swdb25getCompsGroupEnvironmentsERKNSt7__cxx1112basic_stringIcSt11char_traitsIcESaIcEEE@Base 0.35.3
 _ZN6libdnf4Swdb26createCompsEnvironmentItemEv@Base 0.35.3
 _ZN6libdnf4Swdb27getCompsGroupItemsByPatternERKNSt7__cxx1112basic_stringIcSt11char_traitsIcESaIcEEE@Base 0.35.3
 _ZN6libdnf4Swdb31resolveRPMTransactionItemReasonERKNSt7__cxx1112basic_stringIcSt11char_traitsIcESaIcEEES8_l@Base 0.35.3
 _ZN6libdnf4Swdb33getCompsEnvironmentItemsByPatternERKNSt7__cxx1112basic_stringIcSt11char_traitsIcESaIcEEE@Base 0.35.3
 _ZN6libdnf4Swdb7addItemESt10shared_ptrINS_4ItemEERKNSt7__cxx1112basic_stringIcSt11char_traitsIcESaIcEEENS_21TransactionItemActionENS_21TransactionItemReasonE@Base 0.35.3
 _ZN6libdnf4SwdbC1ERKNSt7__cxx1112basic_stringIcSt11char_traitsIcESaIcEEE@Base 0.35.3
 _ZN6libdnf4SwdbC1ESt10shared_ptrI7SQLite3E@Base 0.35.3
 _ZN6libdnf4SwdbC1ESt10shared_ptrI7SQLite3Eb@Base 0.35.3
 _ZN6libdnf4SwdbC2ERKNSt7__cxx1112basic_stringIcSt11char_traitsIcESaIcEEE@Base 0.35.3
 _ZN6libdnf4SwdbC2ESt10shared_ptrI7SQLite3E@Base 0.35.3
 _ZN6libdnf4SwdbC2ESt10shared_ptrI7SQLite3Eb@Base 0.35.3
 _ZN6libdnf4SwdbD1Ev@Base 0.35.3
 _ZN6libdnf4SwdbD2Ev@Base 0.35.3
 _ZN6libdnf5Nevra5clearEv@Base 0.35.3
 _ZN6libdnf5Nevra5parseEPKc7_HyForm@Base 0.35.3
 _ZN6libdnf5Query10queryUnionERS0_@Base 0.35.3
 _ZN6libdnf5Query12filterExtrasEv@Base 0.35.3
 _ZN6libdnf5Query12filterRecentEm@Base 0.35.3
 _ZN6libdnf5Query12getIndexItemEi@Base 0.35.3
 _ZN6libdnf5Query13getResultPsetEv@Base 0.35.3
 _ZN6libdnf5Query14filterUnneededERKNS_4SwdbEb@Base 0.35.3
 _ZN6libdnf5Query15getAdvisoryPkgsEiRSt6vectorINS_11AdvisoryPkgESaIS2_EE@Base 0.35.3
 _ZN6libdnf5Query15queryDifferenceERS0_@Base 0.35.3
 _ZN6libdnf5Query16filterDuplicatedEv@Base 0.35.3
 _ZN6libdnf5Query17queryIntersectionERS0_@Base 0.35.3
 _ZN6libdnf5Query18filterSafeToRemoveERKNS_4SwdbEb@Base 0.35.3
 _ZN6libdnf5Query19filterUserInstalledERKNS_4SwdbE@Base 0.35.3
 _ZN6libdnf5Query21getStringsFromProvideB5cxx11EPKc@Base 0.35.3
 _ZN6libdnf5Query3runEv@Base 0.35.3
 _ZN6libdnf5Query4Impl10filterArchERKNS_6FilterEP4_Map@Base 0.35.3
 _ZN6libdnf5Query4Impl10filterNameERKNS_6FilterEP4_Map@Base 0.35.3
 _ZN6libdnf5Query4Impl10initResultEv@Base 0.35.3
 _ZN6libdnf5Query4Impl11filterEpochERKNS_6FilterEP4_Map@Base 0.35.3
 _ZN6libdnf5Query4Impl11filterNevraERKNS_6FilterEP4_Map@Base 0.35.3
 _ZN6libdnf5Query4Impl12filterLatestERKNS_6FilterEP4_Map@Base 0.35.3
 _ZN6libdnf5Query4Impl12filterUpdownERKNS_6FilterEP4_Map@Base 0.35.3
 _ZN6libdnf5Query4Impl13filterReleaseERKNS_6FilterEP4_Map@Base 0.35.3
 _ZN6libdnf5Query4Impl13filterVersionERKNS_6FilterEP4_Map@Base 0.35.3
 _ZN6libdnf5Query4Impl14filterAdvisoryERKNS_6FilterEP4_Mapi@Base 0.35.3
 _ZN6libdnf5Query4Impl14filterLocationERKNS_6FilterEP4_Map@Base 0.35.3
 _ZN6libdnf5Query4Impl14filterReponameERKNS_6FilterEP4_Map@Base 0.35.3
 _ZN6libdnf5Query4Impl15filterObsoletesERKNS_6FilterEP4_Map@Base 0.35.3
 _ZN6libdnf5Query4Impl15filterRcoReldepERKNS_6FilterEP4_Map@Base 0.35.3
 _ZN6libdnf5Query4Impl15filterSourcerpmERKNS_6FilterEP4_Map@Base 0.35.3
 _ZN6libdnf5Query4Impl16filterUpdownAbleERKNS_6FilterEP4_Map@Base 0.35.3
 _ZN6libdnf5Query4Impl17filterNevraStrictEiPPKc@Base 0.35.3
 _ZN6libdnf5Query4Impl18filterDataiteratorERKNS_6FilterEP4_Map@Base 0.35.3
 _ZN6libdnf5Query4Impl20filterProvidesReldepERKNS_6FilterEP4_Map@Base 0.35.3
 _ZN6libdnf5Query4Impl28filterUnneededOrSafeToRemoveERKNS_4SwdbEbb@Base 0.35.3
 _ZN6libdnf5Query4Impl5applyEv@Base 0.35.3
 _ZN6libdnf5Query4Impl9filterEvrERKNS_6FilterEP4_Map@Base 0.35.3
 _ZN6libdnf5Query4Impl9filterPkgERKNS_6FilterEP4_Map@Base 0.35.3
 _ZN6libdnf5Query4ImplC1EP8_DnfSacki@Base 0.35.3
 _ZN6libdnf5Query4ImplC1ERKS1_@Base 0.35.3
 _ZN6libdnf5Query4ImplC2EP8_DnfSacki@Base 0.35.3
 _ZN6libdnf5Query4ImplC2ERKS1_@Base 0.35.3
 _ZN6libdnf5Query4ImplaSERKS1_@Base 0.35.3
 _ZN6libdnf5Query4sizeEv@Base 0.35.3
 _ZN6libdnf5Query5applyEv@Base 0.35.3
 _ZN6libdnf5Query5clearEv@Base 0.35.3
 _ZN6libdnf5Query5emptyEv@Base 0.35.3
 _ZN6libdnf5Query6runSetEv@Base 0.35.3
 _ZN6libdnf5Query7getSackEv@Base 0.35.3
 _ZN6libdnf5Query9addFilterEPNS_5NevraEb@Base 0.35.3
 _ZN6libdnf5Query9addFilterEiPKNS_10DependencyE@Base 0.35.3
 _ZN6libdnf5Query9addFilterEiPKNS_19DependencyContainerE@Base 0.35.3
 _ZN6libdnf5Query9addFilterEiiPKNS_10PackageSetE@Base 0.35.3
 _ZN6libdnf5Query9addFilterEiiPKc@Base 0.35.3
 _ZN6libdnf5Query9addFilterEiiPPKc@Base 0.35.3
 _ZN6libdnf5Query9addFilterEiii@Base 0.35.3
 _ZN6libdnf5Query9addFilterEiiiPKi@Base 0.35.3
 _ZN6libdnf5Query9getResultEv@Base 0.35.3
 _ZN6libdnf5QueryC1EP8_DnfSacki@Base 0.35.3
 _ZN6libdnf5QueryC1ERKS0_@Base 0.35.3
 _ZN6libdnf5QueryC2EP8_DnfSacki@Base 0.35.3
 _ZN6libdnf5QueryC2ERKS0_@Base 0.35.3
 _ZN6libdnf5QueryD1Ev@Base 0.35.3
 _ZN6libdnf5QueryD2Ev@Base 0.35.3
 _ZN6libdnf5QueryaSERKS0_@Base 0.35.3
 _ZN6libdnf6Filter4ImplD1Ev@Base 0.35.3
 _ZN6libdnf6Filter4ImplD2Ev@Base 0.35.3
 _ZN6libdnf6FilterC1EiiPKNS_10DependencyE@Base 0.35.3
 _ZN6libdnf6FilterC1EiiPKNS_10PackageSetE@Base 0.35.3
 _ZN6libdnf6FilterC1EiiPKNS_19DependencyContainerE@Base 0.35.3
 _ZN6libdnf6FilterC1EiiPKc@Base 0.35.3
 _ZN6libdnf6FilterC1EiiPPKc@Base 0.35.3
 _ZN6libdnf6FilterC1Eiii@Base 0.35.3
 _ZN6libdnf6FilterC1EiiiPKi@Base 0.35.3
 _ZN6libdnf6FilterC2EiiPKNS_10DependencyE@Base 0.35.3
 _ZN6libdnf6FilterC2EiiPKNS_10PackageSetE@Base 0.35.3
 _ZN6libdnf6FilterC2EiiPKNS_19DependencyContainerE@Base 0.35.3
 _ZN6libdnf6FilterC2EiiPKc@Base 0.35.3
 _ZN6libdnf6FilterC2EiiPPKc@Base 0.35.3
 _ZN6libdnf6FilterC2Eiii@Base 0.35.3
 _ZN6libdnf6FilterC2EiiiPKi@Base 0.35.3
 _ZN6libdnf6FilterD1Ev@Base 0.35.3
 _ZN6libdnf6FilterD2Ev@Base 0.35.3
 _ZN6libdnf6Logger5writeEiNS0_5LevelERKNSt7__cxx1112basic_stringIcSt11char_traitsIcESaIcEEE@Base 0.35.3
 _ZN6libdnf6Logger9levelCStrE@Base 0.35.3
 _ZN6libdnf6Nsvcap5clearEv@Base 0.35.3
 _ZN6libdnf6Nsvcap5parseEPKc13_HyModuleForm@Base 0.35.3
 _ZN6libdnf6Option11ValueNotSetD0Ev@Base 0.35.3
 _ZN6libdnf6Option11ValueNotSetD1Ev@Base 0.35.3
 _ZN6libdnf6Option11ValueNotSetD2Ev@Base 0.35.3
 _ZN6libdnf6Option12InvalidValueD0Ev@Base 0.35.3
 _ZN6libdnf6Option12InvalidValueD1Ev@Base 0.35.3
 _ZN6libdnf6Option12InvalidValueD2Ev@Base 0.35.3
 _ZN6libdnf6Option9ExceptionD0Ev@Base 0.35.3
 _ZN6libdnf6Option9ExceptionD1Ev@Base 0.35.3
 _ZN6libdnf6Option9ExceptionD2Ev@Base 0.35.3
 _ZN6libdnf6PluginC1EPKc@Base 0.35.3
 _ZN6libdnf6PluginC2EPKc@Base 0.35.3
 _ZN6libdnf6RepoCB13fastestMirrorENS0_18FastestMirrorStageEPKc@Base 0.35.3
 _ZN6libdnf6RepoCB13repokeyImportERKNSt7__cxx1112basic_stringIcSt11char_traitsIcESaIcEEES8_S8_S8_l@Base 0.35.3
 _ZN6libdnf6RepoCB19handleMirrorFailureEPKcS2_S2_@Base 0.35.3
 _ZN6libdnf6RepoCB3endEv@Base 0.35.3
 _ZN6libdnf6RepoCB5startEPKc@Base 0.35.3
 _ZN6libdnf6RepoCB8progressEdd@Base 0.35.3
 _ZN6libdnf6RepoCBD0Ev@Base 0.35.3
 _ZN6libdnf6RepoCBD1Ev@Base 0.35.3
 _ZN6libdnf6RepoCBD2Ev@Base 0.35.3
 _ZN6libdnf6canonsB5cxx11E@Base 0.35.3
 _ZN6libdnf6string10startsWithERKNSt7__cxx1112basic_stringIcSt11char_traitsIcESaIcEEES8_@Base 0.35.3
 _ZN6libdnf6string10trimPrefixERKNSt7__cxx1112basic_stringIcSt11char_traitsIcESaIcEEES8_@Base 0.35.3
 _ZN6libdnf6string10trimSuffixERKNSt7__cxx1112basic_stringIcSt11char_traitsIcESaIcEEES8_@Base 0.35.3
 _ZN6libdnf6string4trimERKNSt7__cxx1112basic_stringIcSt11char_traitsIcESaIcEEE@Base 0.35.3
 _ZN6libdnf6string5splitERKNSt7__cxx1112basic_stringIcSt11char_traitsIcESaIcEEEPKci@Base 0.35.3
 _ZN6libdnf6string6rsplitERKNSt7__cxx1112basic_stringIcSt11char_traitsIcESaIcEEEPKci@Base 0.35.3
 _ZN6libdnf6string8endsWithERKNSt7__cxx1112basic_stringIcSt11char_traitsIcESaIcEEES8_@Base 0.35.3
 _ZN6libdnf7LibraryC1EPKc@Base 0.35.3
 _ZN6libdnf7LibraryC2EPKc@Base 0.35.3
 _ZN6libdnf7LibraryD1Ev@Base 0.35.3
 _ZN6libdnf7LibraryD2Ev@Base 0.35.3
 _ZN6libdnf7NevraID5parseEP5_PoolPKc@Base 0.35.3
 _ZN6libdnf7Package11addEnhancesESt10shared_ptrINS_10DependencyEE@Base 0.35.3
 _ZN6libdnf7Package11addProvidesESt10shared_ptrINS_10DependencyEE@Base 0.35.3
 _ZN6libdnf7Package11addRequiresESt10shared_ptrINS_10DependencyEE@Base 0.35.3
 _ZN6libdnf7Package11addSuggestsESt10shared_ptrINS_10DependencyEE@Base 0.35.3
 _ZN6libdnf7Package12addConflictsESt10shared_ptrINS_10DependencyEE@Base 0.35.3
 _ZN6libdnf7Package12addObsoletesESt10shared_ptrINS_10DependencyEE@Base 0.35.3
 _ZN6libdnf7Package13addDependencyESt10shared_ptrINS_10DependencyEEii@Base 0.35.3
 _ZN6libdnf7Package13addRecommendsESt10shared_ptrINS_10DependencyEE@Base 0.35.3
 _ZN6libdnf7Package14addRequiresPreESt10shared_ptrINS_10DependencyEE@Base 0.35.3
 _ZN6libdnf7Package14addSupplementsESt10shared_ptrINS_10DependencyEE@Base 0.35.3
 _ZN6libdnf7Package14createSolvableEPNS_4RepoE@Base 0.35.3
 _ZN6libdnf7Package17setSolvableVendorEPKc@Base 0.35.3
 _ZN6libdnf7PackageC1EP8_DnfSackPNS_4RepoEPKcS6_S6_b@Base 0.35.3
 _ZN6libdnf7PackageC1EP8_DnfSackPNS_4RepoERKNSt7__cxx1112basic_stringIcSt11char_traitsIcESaIcEEESC_SC_b@Base 0.35.3
 _ZN6libdnf7PackageC1EP8_DnfSacki@Base 0.35.3
 _ZN6libdnf7PackageC1ERKS0_@Base 0.35.3
 _ZN6libdnf7PackageC2EP8_DnfSackPNS_4RepoEPKcS6_S6_b@Base 0.35.3
 _ZN6libdnf7PackageC2EP8_DnfSackPNS_4RepoERKNSt7__cxx1112basic_stringIcSt11char_traitsIcESaIcEEESC_SC_b@Base 0.35.3
 _ZN6libdnf7PackageC2EP8_DnfSacki@Base 0.35.3
 _ZN6libdnf7PackageC2ERKS0_@Base 0.35.3
 _ZN6libdnf7PackageD0Ev@Base 0.35.3
 _ZN6libdnf7PackageD1Ev@Base 0.35.3
 _ZN6libdnf7PackageD2Ev@Base 0.35.3
 _ZN6libdnf7Plugins10loadPluginERKNSt7__cxx1112basic_stringIcSt11char_traitsIcESaIcEEE@Base 0.35.3
 _ZN6libdnf7Plugins11loadPluginsENSt7__cxx1112basic_stringIcSt11char_traitsIcESaIcEEE@Base 0.35.3
 _ZN6libdnf7Plugins4freeEv@Base 0.35.3
 _ZN6libdnf7Plugins4hookE12PluginHookIdPNS_14PluginHookDataEPNS_11PluginErrorE@Base 0.35.3
 _ZN6libdnf7Plugins4initE10PluginModePNS_14PluginInitDataE@Base 0.35.3
 _ZN6libdnf7RPMItem16dbSelectOrInsertEv@Base 0.35.3
 _ZN6libdnf7RPMItem18getTransactionItemESt10shared_ptrI7SQLite3ERKNSt7__cxx1112basic_stringIcSt11char_traitsIcESaIcEEE@Base 0.35.3
 _ZN6libdnf7RPMItem18searchTransactionsESt10shared_ptrI7SQLite3ERKSt6vectorINSt7__cxx1112basic_stringIcSt11char_traitsIcESaIcEEESaISA_EE@Base 0.35.3
 _ZN6libdnf7RPMItem19getTransactionItemsESt10shared_ptrI7SQLite3El@Base 0.35.3
 _ZN6libdnf7RPMItem28resolveTransactionItemReasonESt10shared_ptrI7SQLite3ERKNSt7__cxx1112basic_stringIcSt11char_traitsIcESaIcEEESB_l@Base 0.35.3
 _ZN6libdnf7RPMItem4saveEv@Base 0.35.3
 _ZN6libdnf7RPMItem8dbInsertEv@Base 0.35.3
 _ZN6libdnf7RPMItem8dbSelectEl@Base 0.35.3
 _ZN6libdnf7RPMItemC1ESt10shared_ptrI7SQLite3E@Base 0.35.3
 _ZN6libdnf7RPMItemC1ESt10shared_ptrI7SQLite3El@Base 0.35.3
 _ZN6libdnf7RPMItemC2ESt10shared_ptrI7SQLite3E@Base 0.35.3
 _ZN6libdnf7RPMItemC2ESt10shared_ptrI7SQLite3El@Base 0.35.3
 _ZN6libdnf7RPMItemD0Ev@Base 0.35.3
 _ZN6libdnf7RPMItemD1Ev@Base 0.35.3
 _ZN6libdnf7RPMItemD2Ev@Base 0.35.3
 _ZN6libdnf7distrosB5cxx11E@Base 0.35.3
 _ZN6libdnf7numeric6randomEii@Base 0.35.3
 _ZN6libdnf8AdvisoryC1EP8_DnfSacki@Base 0.35.3
 _ZN6libdnf8AdvisoryC2EP8_DnfSacki@Base 0.35.3
 _ZN6libdnf8Selector3setEPKNS_10PackageSetE@Base 0.35.3
 _ZN6libdnf8Selector3setEiiPKc@Base 0.35.3
 _ZN6libdnf8Selector7getSackEv@Base 0.35.3
 _ZN6libdnf8Selector7matchesEv@Base 0.35.3
 _ZN6libdnf8SelectorC1EOS0_@Base 0.35.3
 _ZN6libdnf8SelectorC1EP8_DnfSack@Base 0.35.3
 _ZN6libdnf8SelectorC2EOS0_@Base 0.35.3
 _ZN6libdnf8SelectorC2EP8_DnfSack@Base 0.35.3
 _ZN6libdnf8SelectorD1Ev@Base 0.35.3
 _ZN6libdnf8SelectorD2Ev@Base 0.35.3
 _ZN6libdnf8Solution15getBestSolutionEPKcP8_DnfSackP7_HyFormbbbbb@Base 0.35.3
 _ZN6libdnf9FinalizerD1Ev@Base 0.35.3
 _ZN6libdnf9FinalizerD2Ev@Base 0.35.3
 _ZN6libdnf9sltrToJobEPNS_8SelectorEP6_Queuei@Base 0.35.3
 _ZN7SQLite312LibExceptionD0Ev@Base 0.35.3
 _ZN7SQLite312LibExceptionD1Ev@Base 0.35.3
 _ZN7SQLite312LibExceptionD2Ev@Base 0.35.3
 _ZN7SQLite34execEPKc@Base 0.35.3
 _ZN7SQLite34openEv@Base 0.35.3
 _ZN7SQLite35QueryC1ERS_PKc@Base 0.35.3
 _ZN7SQLite35QueryC2ERS_PKc@Base 0.35.3
 _ZN7SQLite35QueryD1Ev@Base 0.35.3
 _ZN7SQLite35QueryD2Ev@Base 0.35.3
 _ZN7SQLite35closeEv@Base 0.35.3
 _ZN7SQLite36backupERKNSt7__cxx1112basic_stringIcSt11char_traitsIcESaIcEEE@Base 0.35.3
 _ZN7SQLite37restoreERKNSt7__cxx1112basic_stringIcSt11char_traitsIcESaIcEEE@Base 0.35.3
 _ZN7SQLite39ExceptionD0Ev@Base 0.35.3
 _ZN7SQLite39ExceptionD1Ev@Base 0.35.3
 _ZN7SQLite39ExceptionD2Ev@Base 0.35.3
 _ZN7SQLite39Statement4bindEil@Base 0.35.3
 _ZN7SQLite39Statement4stepEv@Base 0.35.3
 _ZN8SHA1Hash6updateEPKc@Base 0.35.3
 _ZN8SHA1Hash9hexdigestB5cxx11Ev@Base 0.35.3
 _ZN8SHA1HashC1Ev@Base 0.35.3
 _ZN8SHA1HashC2Ev@Base 0.35.3
 _ZN9IniParser10MissingKeyD0Ev@Base 0.35.3
 _ZN9IniParser10MissingKeyD1Ev@Base 0.35.3
 _ZN9IniParser10MissingKeyD2Ev@Base 0.35.3
 _ZN9IniParser12CantOpenFileD0Ev@Base 0.35.3
 _ZN9IniParser12CantOpenFileD1Ev@Base 0.35.3
 _ZN9IniParser12CantOpenFileD2Ev@Base 0.35.3
 _ZN9IniParser12MissingEqualD0Ev@Base 0.35.3
 _ZN9IniParser12MissingEqualD1Ev@Base 0.35.3
 _ZN9IniParser12MissingEqualD2Ev@Base 0.35.3
 _ZN9IniParser14MissingBracketD0Ev@Base 0.35.3
 _ZN9IniParser14MissingBracketD1Ev@Base 0.35.3
 _ZN9IniParser14MissingBracketD2Ev@Base 0.35.3
 _ZN9IniParser16EmptySectionNameD0Ev@Base 0.35.3
 _ZN9IniParser16EmptySectionNameD1Ev@Base 0.35.3
 _ZN9IniParser16EmptySectionNameD2Ev@Base 0.35.3
 _ZN9IniParser16TextAfterSectionD0Ev@Base 0.35.3
 _ZN9IniParser16TextAfterSectionD1Ev@Base 0.35.3
 _ZN9IniParser16TextAfterSectionD2Ev@Base 0.35.3
 _ZN9IniParser20MissingSectionHeaderD0Ev@Base 0.35.3
 _ZN9IniParser20MissingSectionHeaderD1Ev@Base 0.35.3
 _ZN9IniParser20MissingSectionHeaderD2Ev@Base 0.35.3
 _ZN9IniParser23IllegalContinuationLineD0Ev@Base 0.35.3
 _ZN9IniParser23IllegalContinuationLineD1Ev@Base 0.35.3
 _ZN9IniParser23IllegalContinuationLineD2Ev@Base 0.35.3
 _ZN9IniParser4nextEv@Base 0.35.3
 _ZN9IniParser9ExceptionD0Ev@Base 0.35.3
 _ZN9IniParser9ExceptionD1Ev@Base 0.35.3
 _ZN9IniParser9ExceptionD2Ev@Base 0.35.3
 _ZN9IniParser9trimValueEv@Base 0.35.3
 _ZN9IniParserC1EOSt10unique_ptrISiSt14default_deleteISiEE@Base 0.35.3
 _ZN9IniParserC1ERKNSt7__cxx1112basic_stringIcSt11char_traitsIcESaIcEEE@Base 0.35.3
 _ZN9IniParserC2EOSt10unique_ptrISiSt14default_deleteISiEE@Base 0.35.3
 _ZN9IniParserC2ERKNSt7__cxx1112basic_stringIcSt11char_traitsIcESaIcEEE@Base 0.35.3
 _ZN9IniParserD1Ev@Base 0.35.3
 _ZN9IniParserD2Ev@Base 0.35.3
 _ZN9__gnu_cxx12__to_xstringINSt7__cxx1112basic_stringIcSt11char_traitsIcESaIcEEEcEET_PFiPT0_mPKS8_P13__va_list_tagEmSB_z@Base 0.35.3
 _ZN9__gnu_cxx6__stoaIddcJEEET0_PFT_PKT1_PPS3_DpT2_EPKcS5_PmS9_@Base 0.35.3
 _ZN9__gnu_cxx6__stoaIlicJiEEET0_PFT_PKT1_PPS3_DpT2_EPKcS5_PmS9_@Base 0.35.3
 _ZNK4Line13getColumnCellEP6Column@Base 0.35.3
 _ZNK4Line7getCellEm@Base 0.35.3
 _ZNK5Regex5matchEPKcbm@Base 0.35.3
 _ZNK5Regex6Result16getMatchedStringB5cxx11Em@Base 0.35.3
 _ZNK5Table7getLineEm@Base 0.35.3
 _ZNK5Table9getColumnEm@Base 0.35.3
 _ZNK6Column9getHeaderEv@Base 0.35.3
 _ZNK6libdnf10Dependency10getVersionEv@Base 0.35.3
 _ZNK6libdnf10Dependency11getRelationEv@Base 0.35.3
 _ZNK6libdnf10Dependency7getNameEv@Base 0.35.3
 _ZNK6libdnf10Dependency8toStringEv@Base 0.35.3
 _ZNK6libdnf10OptionBool10fromStringENSt7__cxx1112basic_stringIcSt11char_traitsIcESaIcEEE@Base 0.35.3
 _ZNK6libdnf10OptionBool14getValueStringB5cxx11Ev@Base 0.35.3
 _ZNK6libdnf10OptionBool5cloneEv@Base 0.35.3
 _ZNK6libdnf10OptionBool8toStringB5cxx11Eb@Base 0.35.3
 _ZNK6libdnf10OptionEnumINSt7__cxx1112basic_stringIcSt11char_traitsIcESaIcEEEE10fromStringERKS6_@Base 0.35.3
 _ZNK6libdnf10OptionEnumINSt7__cxx1112basic_stringIcSt11char_traitsIcESaIcEEEE14getValueStringEv@Base 0.35.3
 _ZNK6libdnf10OptionEnumINSt7__cxx1112basic_stringIcSt11char_traitsIcESaIcEEEE4testERKS6_@Base 0.35.3
 _ZNK6libdnf10OptionEnumINSt7__cxx1112basic_stringIcSt11char_traitsIcESaIcEEEE5cloneEv@Base 0.35.3
 _ZNK6libdnf10OptionPath4testERKNSt7__cxx1112basic_stringIcSt11char_traitsIcESaIcEEE@Base 0.35.3
 _ZNK6libdnf10OptionPath5cloneEv@Base 0.35.3
 _ZNK6libdnf10PackageSet3hasEP11_DnfPackage@Base 0.35.3
 _ZNK6libdnf10PackageSet3hasEi@Base 0.35.3
 _ZNK6libdnf10PackageSet4nextEi@Base 0.35.3
 _ZNK6libdnf10PackageSet4sizeEv@Base 0.35.3
 _ZNK6libdnf10PackageSet6getMapEv@Base 0.35.3
 _ZNK6libdnf10PackageSet7getSackEv@Base 0.35.3
 _ZNK6libdnf10PackageSetixEj@Base 0.35.3
 _ZNK6libdnf11AdvisoryPkg11getAdvisoryEv@Base 0.35.3
 _ZNK6libdnf11AdvisoryPkg11getFileNameEv@Base 0.35.3
 _ZNK6libdnf11AdvisoryPkg12getEVRStringEv@Base 0.35.3
 _ZNK6libdnf11AdvisoryPkg13getArchStringEv@Base 0.35.3
 _ZNK6libdnf11AdvisoryPkg13getNameStringEv@Base 0.35.3
 _ZNK6libdnf11AdvisoryPkg6getEVREv@Base 0.35.3
 _ZNK6libdnf11AdvisoryPkg7getArchEv@Base 0.35.3
 _ZNK6libdnf11AdvisoryPkg7getNameEv@Base 0.35.3
 _ZNK6libdnf11AdvisoryRef10getDnfSackEv@Base 0.35.3
 _ZNK6libdnf11AdvisoryRef11getAdvisoryEv@Base 0.35.3
 _ZNK6libdnf11AdvisoryRef8getIndexEv@Base 0.35.3
 _ZNK6libdnf11AdvisoryRefeqERKS0_@Base 0.35.3
 _ZNK6libdnf11OptionBinds10OutOfRange4whatEv@Base 0.35.3
 _ZNK6libdnf11OptionBinds13AlreadyExists4whatEv@Base 0.35.3
 _ZNK6libdnf11OptionBinds2atERKNSt7__cxx1112basic_stringIcSt11char_traitsIcESaIcEEE@Base 0.35.3
 _ZNK6libdnf11OptionBinds4Item11getAddValueEv@Base 0.35.3
 _ZNK6libdnf11OptionBinds4Item11getPriorityEv@Base 0.35.3
 _ZNK6libdnf11OptionBinds4Item14getValueStringB5cxx11Ev@Base 0.35.3
 _ZNK6libdnf11OptionChildINS_10OptionBoolEvE11getPriorityEv@Base 0.35.3
 _ZNK6libdnf11OptionChildINS_10OptionBoolEvE14getValueStringB5cxx11Ev@Base 0.35.3
 _ZNK6libdnf11OptionChildINS_10OptionBoolEvE5cloneEv@Base 0.35.3
 _ZNK6libdnf11OptionChildINS_10OptionBoolEvE5emptyEv@Base 0.35.3
 _ZNK6libdnf11OptionChildINS_10OptionEnumINSt7__cxx1112basic_stringIcSt11char_traitsIcESaIcEEEEEvE11getPriorityEv@Base 0.35.3
 _ZNK6libdnf11OptionChildINS_10OptionEnumINSt7__cxx1112basic_stringIcSt11char_traitsIcESaIcEEEEEvE14getValueStringEv@Base 0.35.3
 _ZNK6libdnf11OptionChildINS_10OptionEnumINSt7__cxx1112basic_stringIcSt11char_traitsIcESaIcEEEEEvE5cloneEv@Base 0.35.3
 _ZNK6libdnf11OptionChildINS_10OptionEnumINSt7__cxx1112basic_stringIcSt11char_traitsIcESaIcEEEEEvE5emptyEv@Base 0.35.3
 _ZNK6libdnf11OptionChildINS_12OptionNumberIfEEvE11getPriorityEv@Base 0.35.3
 _ZNK6libdnf11OptionChildINS_12OptionNumberIfEEvE14getValueStringB5cxx11Ev@Base 0.35.3
 _ZNK6libdnf11OptionChildINS_12OptionNumberIfEEvE5cloneEv@Base 0.35.3
 _ZNK6libdnf11OptionChildINS_12OptionNumberIfEEvE5emptyEv@Base 0.35.3
 _ZNK6libdnf11OptionChildINS_12OptionNumberIjEEvE11getPriorityEv@Base 0.35.3
 _ZNK6libdnf11OptionChildINS_12OptionNumberIjEEvE14getValueStringB5cxx11Ev@Base 0.35.3
 _ZNK6libdnf11OptionChildINS_12OptionNumberIjEEvE5cloneEv@Base 0.35.3
 _ZNK6libdnf11OptionChildINS_12OptionNumberIjEEvE5emptyEv@Base 0.35.3
 _ZNK6libdnf11OptionChildINS_12OptionStringEvE11getPriorityEv@Base 0.35.3
 _ZNK6libdnf11OptionChildINS_12OptionStringEvE14getValueStringB5cxx11Ev@Base 0.35.3
 _ZNK6libdnf11OptionChildINS_12OptionStringEvE5cloneEv@Base 0.35.3
 _ZNK6libdnf11OptionChildINS_12OptionStringEvE5emptyEv@Base 0.35.3
 _ZNK6libdnf11OptionChildINS_13OptionSecondsEvE11getPriorityEv@Base 0.35.3
 _ZNK6libdnf11OptionChildINS_13OptionSecondsEvE14getValueStringB5cxx11Ev@Base 0.35.3
 _ZNK6libdnf11OptionChildINS_13OptionSecondsEvE5cloneEv@Base 0.35.3
 _ZNK6libdnf11OptionChildINS_13OptionSecondsEvE5emptyEv@Base 0.35.3
 _ZNK6libdnf11OptionChildINS_16OptionStringListEvE11getPriorityEv@Base 0.35.3
 _ZNK6libdnf11OptionChildINS_16OptionStringListEvE14getValueStringB5cxx11Ev@Base 0.35.3
 _ZNK6libdnf11OptionChildINS_16OptionStringListEvE5cloneEv@Base 0.35.3
 _ZNK6libdnf11OptionChildINS_16OptionStringListEvE5emptyEv@Base 0.35.3
 _ZNK6libdnf11Transaction16getConsoleOutputB5cxx11Ev@Base 0.35.3
 _ZNK6libdnf11Transaction24getSoftwarePerformedWithEv@Base 0.35.3
 _ZNK6libdnf11TransactioneqERKS0_@Base 0.35.3
 _ZNK6libdnf11TransactiongtERKS0_@Base 0.35.3
 _ZNK6libdnf11TransactionltERKS0_@Base 0.35.3
 _ZNK6libdnf12ConfigParser19getSubstitutedValueERKNSt7__cxx1112basic_stringIcSt11char_traitsIcESaIcEEES8_@Base 0.35.3
 _ZNK6libdnf12ConfigParser5writeERKNSt7__cxx1112basic_stringIcSt11char_traitsIcESaIcEEEb@Base 0.35.3
 _ZNK6libdnf12ConfigParser5writeERKNSt7__cxx1112basic_stringIcSt11char_traitsIcESaIcEEEbS8_@Base 0.35.3
 _ZNK6libdnf12ConfigParser5writeERSo@Base 0.35.3
 _ZNK6libdnf12ConfigParser5writeERSoRKNSt7__cxx1112basic_stringIcSt11char_traitsIcESaIcEEE@Base 0.35.3
 _ZNK6libdnf12ConfigParser8getValueERKNSt7__cxx1112basic_stringIcSt11char_traitsIcESaIcEEES8_@Base 0.35.3
 _ZNK6libdnf12ConfigParser9hasOptionERKNSt7__cxx1112basic_stringIcSt11char_traitsIcESaIcEEES8_@Base 0.35.3
 _ZNK6libdnf12OptionNumberIfE10fromStringERKNSt7__cxx1112basic_stringIcSt11char_traitsIcESaIcEEE@Base 0.35.3
 _ZNK6libdnf12OptionNumberIfE14getValueStringB5cxx11Ev@Base 0.35.3
 _ZNK6libdnf12OptionNumberIfE15getDefaultValueEv@Base 0.35.3
 _ZNK6libdnf12OptionNumberIfE4testEf@Base 0.35.3
 _ZNK6libdnf12OptionNumberIfE5cloneEv@Base 0.35.3
 _ZNK6libdnf12OptionNumberIfE8getValueEv@Base 0.35.3
 _ZNK6libdnf12OptionNumberIfE8toStringB5cxx11Ef@Base 0.35.3
 _ZNK6libdnf12OptionNumberIiE10fromStringERKNSt7__cxx1112basic_stringIcSt11char_traitsIcESaIcEEE@Base 0.35.3
 _ZNK6libdnf12OptionNumberIiE14getValueStringB5cxx11Ev@Base 0.35.3
 _ZNK6libdnf12OptionNumberIiE15getDefaultValueEv@Base 0.35.3
 _ZNK6libdnf12OptionNumberIiE4testEi@Base 0.35.3
 _ZNK6libdnf12OptionNumberIiE5cloneEv@Base 0.35.3
 _ZNK6libdnf12OptionNumberIiE8getValueEv@Base 0.35.3
 _ZNK6libdnf12OptionNumberIiE8toStringB5cxx11Ei@Base 0.35.3
 _ZNK6libdnf12OptionNumberIjE10fromStringERKNSt7__cxx1112basic_stringIcSt11char_traitsIcESaIcEEE@Base 0.35.3
 _ZNK6libdnf12OptionNumberIjE14getValueStringB5cxx11Ev@Base 0.35.3
 _ZNK6libdnf12OptionNumberIjE15getDefaultValueEv@Base 0.35.3
 _ZNK6libdnf12OptionNumberIjE4testEj@Base 0.35.3
 _ZNK6libdnf12OptionNumberIjE5cloneEv@Base 0.35.3
 _ZNK6libdnf12OptionNumberIjE8getValueEv@Base 0.35.3
 _ZNK6libdnf12OptionNumberIjE8toStringB5cxx11Ej@Base 0.35.3
 _ZNK6libdnf12OptionNumberIlE10fromStringERKNSt7__cxx1112basic_stringIcSt11char_traitsIcESaIcEEE@Base 0.35.3
 _ZNK6libdnf12OptionNumberIlE14getValueStringB5cxx11Ev@Base 0.35.3
 _ZNK6libdnf12OptionNumberIlE15getDefaultValueEv@Base 0.35.3
 _ZNK6libdnf12OptionNumberIlE4testEl@Base 0.35.3
 _ZNK6libdnf12OptionNumberIlE5cloneEv@Base 0.35.3
 _ZNK6libdnf12OptionNumberIlE8getValueEv@Base 0.35.3
 _ZNK6libdnf12OptionNumberIlE8toStringB5cxx11El@Base 0.35.3
 _ZNK6libdnf12OptionNumberImE10fromStringERKNSt7__cxx1112basic_stringIcSt11char_traitsIcESaIcEEE@Base 0.35.3
 _ZNK6libdnf12OptionNumberImE14getValueStringB5cxx11Ev@Base 0.35.3
 _ZNK6libdnf12OptionNumberImE15getDefaultValueEv@Base 0.35.3
 _ZNK6libdnf12OptionNumberImE4testEm@Base 0.35.3
 _ZNK6libdnf12OptionNumberImE5cloneEv@Base 0.35.3
 _ZNK6libdnf12OptionNumberImE8getValueEv@Base 0.35.3
 _ZNK6libdnf12OptionNumberImE8toStringB5cxx11Em@Base 0.35.3
 _ZNK6libdnf12OptionString14getValueStringB5cxx11Ev@Base 0.35.3
 _ZNK6libdnf12OptionString4testERKNSt7__cxx1112basic_stringIcSt11char_traitsIcESaIcEEE@Base 0.35.3
 _ZNK6libdnf12OptionString5cloneEv@Base 0.35.3
 _ZNK6libdnf12OptionString8getValueB5cxx11Ev@Base 0.35.3
 _ZNK6libdnf13ModulePackage10getContextB5cxx11Ev@Base 0.35.3
 _ZNK6libdnf13ModulePackage10getSummaryB5cxx11Ev@Base 0.35.3
 _ZNK6libdnf13ModulePackage10getVersionB5cxx11Ev@Base 0.35.3
 _ZNK6libdnf13ModulePackage11getArchCStrEv@Base 0.35.3
 _ZNK6libdnf13ModulePackage11getNameCStrEv@Base 0.35.3
 _ZNK6libdnf13ModulePackage11getProfilesERKNSt7__cxx1112basic_stringIcSt11char_traitsIcESaIcEEE@Base 0.35.3
 _ZNK6libdnf13ModulePackage11getProfilesEv@Base 0.35.3
 _ZNK6libdnf13ModulePackage12getArtifactsB5cxx11Ev@Base 0.35.3
 _ZNK6libdnf13ModulePackage13getNameStreamB5cxx11Ev@Base 0.35.3
 _ZNK6libdnf13ModulePackage13getStreamCStrEv@Base 0.35.3
 _ZNK6libdnf13ModulePackage13getVersionNumEv@Base 0.35.3
 _ZNK6libdnf13ModulePackage14getContextCStrEv@Base 0.35.3
 _ZNK6libdnf13ModulePackage14getDescriptionB5cxx11Ev@Base 0.35.3
 _ZNK6libdnf13ModulePackage17getFullIdentifierB5cxx11Ev@Base 0.35.3
 _ZNK6libdnf13ModulePackage18createDependenciesEP9_Solvable@Base 0.35.3
 _ZNK6libdnf13ModulePackage20getNameStreamVersionB5cxx11Ev@Base 0.35.3
 _ZNK6libdnf13ModulePackage21getModuleDependenciesEv@Base 0.35.3
 _ZNK6libdnf13ModulePackage7getArchB5cxx11Ev@Base 0.35.3
 _ZNK6libdnf13ModulePackage7getNameB5cxx11Ev@Base 0.35.3
 _ZNK6libdnf13ModulePackage9getRepoIDB5cxx11Ev@Base 0.35.3
 _ZNK6libdnf13ModulePackage9getStreamB5cxx11Ev@Base 0.35.3
 _ZNK6libdnf13ModuleProfile10getContentB5cxx11Ev@Base 0.35.3
 _ZNK6libdnf13ModuleProfile14getDescriptionB5cxx11Ev@Base 0.35.3
 _ZNK6libdnf13ModuleProfile7getNameB5cxx11Ev@Base 0.35.3
 _ZNK6libdnf13OptionSeconds10fromStringERKNSt7__cxx1112basic_stringIcSt11char_traitsIcESaIcEEE@Base 0.35.3
 _ZNK6libdnf13OptionSeconds5cloneEv@Base 0.35.3
 _ZNK6libdnf14AdvisoryModule10getContextEv@Base 0.35.3
 _ZNK6libdnf14AdvisoryModule10getVersionEv@Base 0.35.3
 _ZNK6libdnf14AdvisoryModule11getAdvisoryEv@Base 0.35.3
 _ZNK6libdnf14AdvisoryModule7getArchEv@Base 0.35.3
 _ZNK6libdnf14AdvisoryModule7getNameEv@Base 0.35.3
 _ZNK6libdnf14AdvisoryModule9getStreamEv@Base 0.35.3
 _ZNK6libdnf14CompsGroupItem11getItemTypeEv@Base 0.35.3
 _ZNK6libdnf14CompsGroupItem5toStrB5cxx11Ev@Base 0.35.3
 _ZNK6libdnf14ModuleMetadata10getContextEv@Base 0.35.3
 _ZNK6libdnf14ModuleMetadata10getSummaryB5cxx11Ev@Base 0.35.3
 _ZNK6libdnf14ModuleMetadata10getVersionEv@Base 0.35.3
 _ZNK6libdnf14ModuleMetadata11getProfilesERKNSt7__cxx1112basic_stringIcSt11char_traitsIcESaIcEEE@Base 0.35.3
 _ZNK6libdnf14ModuleMetadata12getArtifactsB5cxx11Ev@Base 0.35.3
 _ZNK6libdnf14ModuleMetadata14getDescriptionB5cxx11Ev@Base 0.35.3
 _ZNK6libdnf14ModuleMetadata15getArchitectureEv@Base 0.35.3
 _ZNK6libdnf14ModuleMetadata15getDependenciesEv@Base 0.35.3
 _ZNK6libdnf14ModuleMetadata7getNameEv@Base 0.35.3
 _ZNK6libdnf14ModuleMetadata7getYamlB5cxx11Ev@Base 0.35.3
 _ZNK6libdnf14ModuleMetadata9getStreamEv@Base 0.35.3
 _ZNK6libdnf15TransactionItem14getInstalledByEv@Base 0.35.3
 _ZNK6libdnf16OptionStringList10fromStringERKNSt7__cxx1112basic_stringIcSt11char_traitsIcESaIcEEE@Base 0.35.3
 _ZNK6libdnf16OptionStringList14getValueStringB5cxx11Ev@Base 0.35.3
 _ZNK6libdnf16OptionStringList4testERKSt6vectorINSt7__cxx1112basic_stringIcSt11char_traitsIcESaIcEEESaIS7_EE@Base 0.35.3
 _ZNK6libdnf16OptionStringList5cloneEv@Base 0.35.3
 _ZNK6libdnf16OptionStringList8toStringERKSt6vectorINSt7__cxx1112basic_stringIcSt11char_traitsIcESaIcEEESaIS7_EE@Base 0.35.3
 _ZNK6libdnf17MergedTransaction10getDtBeginEv@Base 0.35.3
 _ZNK6libdnf17MergedTransaction10listStatesEv@Base 0.35.3
 _ZNK6libdnf17MergedTransaction11listUserIdsEv@Base 0.35.3
 _ZNK6libdnf17MergedTransaction12listCmdlinesB5cxx11Ev@Base 0.35.3
 _ZNK6libdnf17MergedTransaction15listReleaseversB5cxx11Ev@Base 0.35.3
 _ZNK6libdnf17MergedTransaction18getRpmdbVersionEndB5cxx11Ev@Base 0.35.3
 _ZNK6libdnf17MergedTransaction20getRpmdbVersionBeginB5cxx11Ev@Base 0.35.3
 _ZNK6libdnf17MergedTransaction24getSoftwarePerformedWithEv@Base 0.35.3
 _ZNK6libdnf17MergedTransaction7listIdsEv@Base 0.35.3
 _ZNK6libdnf17MergedTransaction8getDtEndEv@Base 0.35.3
 _ZNK6libdnf18ModuleDependencies11getRequiresB5cxx11Ev@Base 0.35.3
 _ZNK6libdnf18ModuleDependencies15getRequirementsB5cxx11EP11_GHashTable@Base 0.35.3
 _ZNK6libdnf18ModuleDependencies22wrapModuleDependenciesB5cxx11EPKcP18_ModulemdSimpleSet@Base 0.35.3
 _ZNK6libdnf19DependencyContainer3getEi@Base 0.35.3
 _ZNK6libdnf19DependencyContainer5countEv@Base 0.35.3
 _ZNK6libdnf19DependencyContainer6getPtrEi@Base 0.35.3
 _ZNK6libdnf19DependencyContainer8getQueueEv@Base 0.35.3
 _ZNK6libdnf19DependencyContainereqERKS0_@Base 0.35.3
 _ZNK6libdnf19DependencyContainerneERKS0_@Base 0.35.3
 _ZNK6libdnf19TransactionItemBase15isForwardActionEv@Base 0.35.3
 _ZNK6libdnf19TransactionItemBase16isBackwardActionEv@Base 0.35.3
 _ZNK6libdnf20CompsEnvironmentItem11getItemTypeEv@Base 0.35.3
 _ZNK6libdnf20CompsEnvironmentItem5toStrB5cxx11Ev@Base 0.35.3
 _ZNK6libdnf22ModulePackageContainer16getDefaultStreamERKNSt7__cxx1112basic_stringIcSt11char_traitsIcESaIcEEE@Base 0.35.3
 _ZNK6libdnf22ModulePackageContainer5emptyEv@Base 0.35.3
 _ZNK6libdnf23ModuleDefaultsContainer14reportFailuresEPK10_GPtrArray@Base 0.35.3
 _ZNK6libdnf4Item11getItemTypeEv@Base 0.35.3
 _ZNK6libdnf4Item5toStrB5cxx11Ev@Base 0.35.3
 _ZNK6libdnf4Repo10getMirrorsB5cxx11Ev@Base 0.35.3
 _ZNK6libdnf4Repo11getCachedirB5cxx11Ev@Base 0.35.3
 _ZNK6libdnf4Repo11getPriorityEv@Base 0.35.3
 _ZNK6libdnf4Repo11getRevisionB5cxx11Ev@Base 0.35.3
 _ZNK6libdnf4Repo12getExpiresInEv@Base 0.35.3
 _ZNK6libdnf4Repo12getTimestampEv@Base 0.35.3
 _ZNK6libdnf4Repo14getHttpHeadersEv@Base 0.35.3
 _ZNK6libdnf4Repo14getUseIncludesEv@Base 0.35.3
 _ZNK6libdnf4Repo15getRepoFilePathB5cxx11Ev@Base 0.35.3
 _ZNK6libdnf4Repo15getSyncStrategyEv@Base 0.35.3
 _ZNK6libdnf4Repo20getLoadMetadataOtherEv@Base 0.35.3
 _ZNK6libdnf4Repo21getPreserveRemoteTimeEv@Base 0.35.3
 _ZNK6libdnf4Repo4Impl11getCachedirB5cxx11Ev@Base 0.35.3
 _ZNK6libdnf4Repo4Impl12getExpiresInEv@Base 0.35.3
 _ZNK6libdnf4Repo4Impl13getPersistdirB5cxx11Ev@Base 0.35.3
 _ZNK6libdnf4Repo4Impl14getHttpHeadersEv@Base 0.35.3
 _ZNK6libdnf4Repo4Impl15getMetadataPathERKNSt7__cxx1112basic_stringIcSt11char_traitsIcESaIcEEE@Base 0.35.3
 _ZNK6libdnf4Repo4Impl6getAgeEv@Base 0.35.3
 _ZNK6libdnf4Repo4Impl7getHashB5cxx11Ev@Base 0.35.3
 _ZNK6libdnf4Repo4Impl8endsWithERKNSt7__cxx1112basic_stringIcSt11char_traitsIcESaIcEEES9_@Base 0.35.3
 _ZNK6libdnf4Repo4Impl9isExpiredEv@Base 0.35.3
 _ZNK6libdnf4Repo5getIdB5cxx11Ev@Base 0.35.3
 _ZNK6libdnf4Repo6getAgeEv@Base 0.35.3
 _ZNK6libdnf4Repo6verifyEv@Base 0.35.3
 _ZNK6libdnf4Repo7getCostEv@Base 0.35.3
 _ZNK6libdnf4Repo7isLocalEv@Base 0.35.3
 _ZNK6libdnf4Repo9isEnabledEv@Base 0.35.3
 _ZNK6libdnf4Repo9isExpiredEv@Base 0.35.3
 _ZNK6libdnf4Swdb19filterUserinstalledERNS_10PackageSetE@Base 0.35.3
 _ZNK6libdnf5Nevra10compareEvrERKS0_P8_DnfSack@Base 0.35.3
 _ZNK6libdnf5Nevra11hasJustNameEv@Base 0.35.3
 _ZNK6libdnf5Nevra6getEvrB5cxx11Ev@Base 0.35.3
 _ZNK6libdnf5Nevra7compareERKS0_@Base 0.35.3
 _ZNK6libdnf5Query10getAppliedEv@Base 0.35.3
 _ZNK6libdnf5Query4Impl6isGlobERKSt6vectorIPKcSaIS4_EE@Base 0.35.3
 _ZNK6libdnf5Query9getResultEv@Base 0.35.3
 _ZNK6libdnf6Filter10getCmpTypeEv@Base 0.35.3
 _ZNK6libdnf6Filter10getKeynameEv@Base 0.35.3
 _ZNK6libdnf6Filter10getMatchesEv@Base 0.35.3
 _ZNK6libdnf6Filter12getMatchTypeEv@Base 0.35.3
 _ZNK6libdnf6Option11getPriorityEv@Base 0.35.3
 _ZNK6libdnf6Option5emptyEv@Base 0.35.3
 _ZNK6libdnf7Package11getEnhancesEv@Base 0.35.3
 _ZNK6libdnf7Package11getProvidesEv@Base 0.35.3
 _ZNK6libdnf7Package11getRequiresEv@Base 0.35.3
 _ZNK6libdnf7Package11getSuggestsEv@Base 0.35.3
 _ZNK6libdnf7Package12getConflictsEv@Base 0.35.3
 _ZNK6libdnf7Package12getObsoletesEv@Base 0.35.3
 _ZNK6libdnf7Package13getRecommendsEv@Base 0.35.3
 _ZNK6libdnf7Package14getRequiresPreEv@Base 0.35.3
 _ZNK6libdnf7Package14getSolvableEvrEv@Base 0.35.3
 _ZNK6libdnf7Package14getSupplementsEv@Base 0.35.3
 _ZNK6libdnf7Package15getDependenciesEii@Base 0.35.3
 _ZNK6libdnf7Package15getSolvableNameEv@Base 0.35.3
 _ZNK6libdnf7Package16fillSolvableDataEPKcS2_S2_@Base 0.35.3
 _ZNK6libdnf7Package17getSolvableVendorEv@Base 0.35.3
 _ZNK6libdnf7Package18getDependencyQueueEii@Base 0.35.3
 _ZNK6libdnf7Package5getIdEv@Base 0.35.3
 _ZNK6libdnf7Package7getArchEv@Base 0.35.3
 _ZNK6libdnf7RPMItem11getItemTypeEv@Base 0.35.3
 _ZNK6libdnf7RPMItem5toStrB5cxx11Ev@Base 0.35.3
 _ZNK6libdnf7RPMItem8getNEVRAB5cxx11Ev@Base 0.35.3
 _ZNK6libdnf7RPMItemltERKS0_@Base 0.35.3
 _ZNK6libdnf8Advisory10getModulesEv@Base 0.35.3
 _ZNK6libdnf8Advisory10getUpdatedEv@Base 0.35.3
 _ZNK6libdnf8Advisory11getPackagesERSt6vectorINS_11AdvisoryPkgESaIS2_EEb@Base 0.35.3
 _ZNK6libdnf8Advisory11getSeverityEv@Base 0.35.3
 _ZNK6libdnf8Advisory13getReferencesERSt6vectorINS_11AdvisoryRefESaIS2_EE@Base 0.35.3
 _ZNK6libdnf8Advisory13matchBugOrCVEEPKcb@Base 0.35.3
 _ZNK6libdnf8Advisory13matchSeverityEPKc@Base 0.35.3
 _ZNK6libdnf8Advisory14getDescriptionEv@Base 0.35.3
 _ZNK6libdnf8Advisory7getKindEv@Base 0.35.3
 _ZNK6libdnf8Advisory7getNameEv@Base 0.35.3
 _ZNK6libdnf8Advisory8getTitleEv@Base 0.35.3
 _ZNK6libdnf8Advisory8matchBugEPKc@Base 0.35.3
 _ZNK6libdnf8Advisory8matchCVEEPKc@Base 0.35.3
 _ZNK6libdnf8Advisory9getRightsEv@Base 0.35.3
 _ZNK6libdnf8Advisory9matchKindEPKc@Base 0.35.3
 _ZNK6libdnf8Advisory9matchNameEPKc@Base 0.35.3
 _ZNK6libdnf8AdvisoryeqERKS0_@Base 0.35.3
 _ZNK6libdnf8Selector12getFilterEvrEv@Base 0.35.3
 _ZNK6libdnf8Selector13getFilterArchEv@Base 0.35.3
 _ZNK6libdnf8Selector13getFilterFileEv@Base 0.35.3
 _ZNK6libdnf8Selector13getFilterNameEv@Base 0.35.3
 _ZNK6libdnf8Selector17getFilterProvidesEv@Base 0.35.3
 _ZNK6libdnf8Selector17getFilterReponameEv@Base 0.35.3
 _ZNK6libdnf8Selector7getPkgsEv@Base 0.35.3
 _ZNK9IniParser10MissingKey4whatEv@Base 0.35.3
 _ZNK9IniParser12CantOpenFile4whatEv@Base 0.35.3
 _ZNK9IniParser12MissingEqual4whatEv@Base 0.35.3
 _ZNK9IniParser14MissingBracket4whatEv@Base 0.35.3
 _ZNK9IniParser16EmptySectionName4whatEv@Base 0.35.3
 _ZNK9IniParser16TextAfterSection4whatEv@Base 0.35.3
 _ZNK9IniParser20MissingSectionHeader4whatEv@Base 0.35.3
 _ZNK9IniParser23IllegalContinuationLine4whatEv@Base 0.35.3
 _ZNKSt5ctypeIcE8do_widenEc@Base 0.35.3
 _ZNKSt8_Rb_treeINSt7__cxx1112basic_stringIcSt11char_traitsIcESaIcEEESt4pairIKS5_S5_ESt10_Select1stIS8_ESt4lessIS5_ESaIS8_EE4findERS7_@Base 0.35.3
 _ZNSt10unique_ptrIN6libdnf13ModulePackageESt14default_deleteIS1_EED1Ev@Base 0.35.3
 _ZNSt10unique_ptrIN6libdnf13ModulePackageESt14default_deleteIS1_EED2Ev@Base 0.35.3
 _ZNSt10unique_ptrIN6libdnf7IdQueueESt14default_deleteIS1_EED1Ev@Base 0.35.3
 _ZNSt10unique_ptrIN6libdnf7IdQueueESt14default_deleteIS1_EED2Ev@Base 0.35.3
 _ZNSt14_Function_base13_Base_managerIN6libdnf10ConfigMain4Impl10ip_resolveMUlRKNSt7__cxx1112basic_stringIcSt11char_traitsIcESaIcEEEE_EE10_M_managerERSt9_Any_dataRKSE_St18_Manager_operation@Base 0.35.3
 _ZNSt14_Function_base13_Base_managerIN6libdnf10ConfigMain4Impl17history_list_viewMUlRKNSt7__cxx1112basic_stringIcSt11char_traitsIcESaIcEEEE_EE10_M_managerERSt9_Any_dataRKSE_St18_Manager_operation@Base 0.35.3
 _ZNSt14_Function_base13_Base_managerIN6libdnf10ConfigMain4Impl17installonly_limitMUlRKNSt7__cxx1112basic_stringIcSt11char_traitsIcESaIcEEEE_EE10_M_managerERSt9_Any_dataRKSE_St18_Manager_operation@Base 0.35.3
 _ZNSt14_Function_base13_Base_managerIN6libdnf10ConfigMain4Impl17proxy_auth_methodMUlRKNSt7__cxx1112basic_stringIcSt11char_traitsIcESaIcEEEE_EE10_M_managerERSt9_Any_dataRKSE_St18_Manager_operation@Base 0.35.3
 _ZNSt14_Function_base13_Base_managerIN6libdnf10ConfigMain4Impl5colorMUlRKNSt7__cxx1112basic_stringIcSt11char_traitsIcESaIcEEEE_EE10_M_managerERSt9_Any_dataRKSE_St18_Manager_operation@Base 0.35.3
 _ZNSt14_Function_base13_Base_managerIN6libdnf10ConfigMain4Impl8throttleMUlRKNSt7__cxx1112basic_stringIcSt11char_traitsIcESaIcEEEE_EE10_M_managerERSt9_Any_dataRKSE_St18_Manager_operation@Base 0.35.3
 _ZNSt14_Function_base13_Base_managerIN6libdnf4Repo4Impl11httpHeadersMUlPPcE_EE10_M_managerERSt9_Any_dataRKS8_St18_Manager_operation@Base 0.35.3
 _ZNSt14_Function_base13_Base_managerIPFiRKNSt7__cxx1112basic_stringIcSt11char_traitsIcESaIcEEEEE10_M_managerERSt9_Any_dataRKSC_St18_Manager_operation@Base 0.35.3
 _ZNSt15_Sp_counted_ptrIDnLN9__gnu_cxx12_Lock_policyE2EE10_M_disposeEv@Base 0.35.3
 _ZNSt15_Sp_counted_ptrIPN6libdnf6Filter4ImplELN9__gnu_cxx12_Lock_policyE2EE10_M_destroyEv@Base 0.35.3
 _ZNSt15_Sp_counted_ptrIPN6libdnf6Filter4ImplELN9__gnu_cxx12_Lock_policyE2EE10_M_disposeEv@Base 0.35.3
 _ZNSt15_Sp_counted_ptrIPN6libdnf6Filter4ImplELN9__gnu_cxx12_Lock_policyE2EE14_M_get_deleterERKSt9type_info@Base 0.35.3
 _ZNSt15_Sp_counted_ptrIPN6libdnf6Filter4ImplELN9__gnu_cxx12_Lock_policyE2EED0Ev@Base 0.35.3
 _ZNSt15_Sp_counted_ptrIPN6libdnf6Filter4ImplELN9__gnu_cxx12_Lock_policyE2EED1Ev@Base 0.35.3
 _ZNSt15_Sp_counted_ptrIPN6libdnf6Filter4ImplELN9__gnu_cxx12_Lock_policyE2EED2Ev@Base 0.35.3
 _ZNSt16_Sp_counted_baseILN9__gnu_cxx12_Lock_policyE2EE10_M_destroyEv@Base 0.35.3
 _ZNSt16_Sp_counted_baseILN9__gnu_cxx12_Lock_policyE2EE10_M_releaseEv@Base 0.35.3
 _ZNSt17_Function_handlerIFNSt7__cxx1112basic_stringIcSt11char_traitsIcESaIcEEERKS5_EN6libdnf10ConfigMain4Impl10ip_resolveMUlS7_E_EE9_M_invokeERKSt9_Any_dataS7_@Base 0.35.3
 _ZNSt17_Function_handlerIFNSt7__cxx1112basic_stringIcSt11char_traitsIcESaIcEEERKS5_EN6libdnf10ConfigMain4Impl17history_list_viewMUlS7_E_EE9_M_invokeERKSt9_Any_dataS7_@Base 0.35.3
 _ZNSt17_Function_handlerIFNSt7__cxx1112basic_stringIcSt11char_traitsIcESaIcEEERKS5_EN6libdnf10ConfigMain4Impl17proxy_auth_methodMUlS7_E_EE9_M_invokeERKSt9_Any_dataS7_@Base 0.35.3
 _ZNSt17_Function_handlerIFNSt7__cxx1112basic_stringIcSt11char_traitsIcESaIcEEERKS5_EN6libdnf10ConfigMain4Impl5colorMUlS7_E_EE9_M_invokeERKSt9_Any_dataS7_@Base 0.35.3
 _ZNSt17_Function_handlerIFfRKNSt7__cxx1112basic_stringIcSt11char_traitsIcESaIcEEEEN6libdnf10ConfigMain4Impl8throttleMUlS7_E_EE9_M_invokeERKSt9_Any_dataS7_@Base 0.35.3
 _ZNSt17_Function_handlerIFiRKNSt7__cxx1112basic_stringIcSt11char_traitsIcESaIcEEEEPS8_E9_M_invokeERKSt9_Any_dataS7_@Base 0.35.3
 _ZNSt17_Function_handlerIFjRKNSt7__cxx1112basic_stringIcSt11char_traitsIcESaIcEEEEN6libdnf10ConfigMain4Impl17installonly_limitMUlS7_E_EE9_M_invokeERKSt9_Any_dataS7_@Base 0.35.3
 _ZNSt17_Function_handlerIFjRKNSt7__cxx1112basic_stringIcSt11char_traitsIcESaIcEEEEPFiS7_EE9_M_invokeERKSt9_Any_dataS7_@Base 0.35.3
 _ZNSt17_Function_handlerIFvPPcEN6libdnf4Repo4Impl11httpHeadersMUlS1_E_EE9_M_invokeERKSt9_Any_dataOS1_@Base 0.35.3
 _ZNSt19_Sp_counted_deleterIP20_ModulemdPrioritizerPFvPvESaIvELN9__gnu_cxx12_Lock_policyE2EE10_M_destroyEv@Base 0.35.3
 _ZNSt19_Sp_counted_deleterIP20_ModulemdPrioritizerPFvPvESaIvELN9__gnu_cxx12_Lock_policyE2EE10_M_disposeEv@Base 0.35.3
 _ZNSt19_Sp_counted_deleterIP20_ModulemdPrioritizerPFvPvESaIvELN9__gnu_cxx12_Lock_policyE2EE14_M_get_deleterERKSt9type_info@Base 0.35.3
 _ZNSt19_Sp_counted_deleterIP20_ModulemdPrioritizerPFvPvESaIvELN9__gnu_cxx12_Lock_policyE2EED0Ev@Base 0.35.3
 _ZNSt19_Sp_counted_deleterIP20_ModulemdPrioritizerPFvPvESaIvELN9__gnu_cxx12_Lock_policyE2EED1Ev@Base 0.35.3
 _ZNSt19_Sp_counted_deleterIP20_ModulemdPrioritizerPFvPvESaIvELN9__gnu_cxx12_Lock_policyE2EED2Ev@Base 0.35.3
 _ZNSt23_Sp_counted_ptr_inplaceI4CellSaIS0_ELN9__gnu_cxx12_Lock_policyE2EE10_M_destroyEv@Base 0.35.3
 _ZNSt23_Sp_counted_ptr_inplaceI4CellSaIS0_ELN9__gnu_cxx12_Lock_policyE2EE10_M_disposeEv@Base 0.35.3
 _ZNSt23_Sp_counted_ptr_inplaceI4CellSaIS0_ELN9__gnu_cxx12_Lock_policyE2EE14_M_get_deleterERKSt9type_info@Base 0.35.3
 _ZNSt23_Sp_counted_ptr_inplaceI4CellSaIS0_ELN9__gnu_cxx12_Lock_policyE2EED0Ev@Base 0.35.3
 _ZNSt23_Sp_counted_ptr_inplaceI4CellSaIS0_ELN9__gnu_cxx12_Lock_policyE2EED1Ev@Base 0.35.3
 _ZNSt23_Sp_counted_ptr_inplaceI4CellSaIS0_ELN9__gnu_cxx12_Lock_policyE2EED2Ev@Base 0.35.3
 _ZNSt23_Sp_counted_ptr_inplaceI4LineSaIS0_ELN9__gnu_cxx12_Lock_policyE2EE10_M_destroyEv@Base 0.35.3
 _ZNSt23_Sp_counted_ptr_inplaceI4LineSaIS0_ELN9__gnu_cxx12_Lock_policyE2EE10_M_disposeEv@Base 0.35.3
 _ZNSt23_Sp_counted_ptr_inplaceI4LineSaIS0_ELN9__gnu_cxx12_Lock_policyE2EE14_M_get_deleterERKSt9type_info@Base 0.35.3
 _ZNSt23_Sp_counted_ptr_inplaceI4LineSaIS0_ELN9__gnu_cxx12_Lock_policyE2EED0Ev@Base 0.35.3
 _ZNSt23_Sp_counted_ptr_inplaceI4LineSaIS0_ELN9__gnu_cxx12_Lock_policyE2EED1Ev@Base 0.35.3
 _ZNSt23_Sp_counted_ptr_inplaceI4LineSaIS0_ELN9__gnu_cxx12_Lock_policyE2EED2Ev@Base 0.35.3
 _ZNSt23_Sp_counted_ptr_inplaceI6ColumnSaIS0_ELN9__gnu_cxx12_Lock_policyE2EE10_M_destroyEv@Base 0.35.3
 _ZNSt23_Sp_counted_ptr_inplaceI6ColumnSaIS0_ELN9__gnu_cxx12_Lock_policyE2EE10_M_disposeEv@Base 0.35.3
 _ZNSt23_Sp_counted_ptr_inplaceI6ColumnSaIS0_ELN9__gnu_cxx12_Lock_policyE2EE14_M_get_deleterERKSt9type_info@Base 0.35.3
 _ZNSt23_Sp_counted_ptr_inplaceI6ColumnSaIS0_ELN9__gnu_cxx12_Lock_policyE2EED0Ev@Base 0.35.3
 _ZNSt23_Sp_counted_ptr_inplaceI6ColumnSaIS0_ELN9__gnu_cxx12_Lock_policyE2EED1Ev@Base 0.35.3
 _ZNSt23_Sp_counted_ptr_inplaceI6ColumnSaIS0_ELN9__gnu_cxx12_Lock_policyE2EED2Ev@Base 0.35.3
 _ZNSt23_Sp_counted_ptr_inplaceI7SQLite3SaIS0_ELN9__gnu_cxx12_Lock_policyE2EE10_M_destroyEv@Base 0.35.3
 _ZNSt23_Sp_counted_ptr_inplaceI7SQLite3SaIS0_ELN9__gnu_cxx12_Lock_policyE2EE10_M_disposeEv@Base 0.35.3
 _ZNSt23_Sp_counted_ptr_inplaceI7SQLite3SaIS0_ELN9__gnu_cxx12_Lock_policyE2EE14_M_get_deleterERKSt9type_info@Base 0.35.3
 _ZNSt23_Sp_counted_ptr_inplaceI7SQLite3SaIS0_ELN9__gnu_cxx12_Lock_policyE2EED0Ev@Base 0.35.3
 _ZNSt23_Sp_counted_ptr_inplaceI7SQLite3SaIS0_ELN9__gnu_cxx12_Lock_policyE2EED1Ev@Base 0.35.3
 _ZNSt23_Sp_counted_ptr_inplaceI7SQLite3SaIS0_ELN9__gnu_cxx12_Lock_policyE2EED2Ev@Base 0.35.3
 _ZNSt23_Sp_counted_ptr_inplaceIN6libdnf11TransactionESaIS1_ELN9__gnu_cxx12_Lock_policyE2EE10_M_destroyEv@Base 0.35.3
 _ZNSt23_Sp_counted_ptr_inplaceIN6libdnf11TransactionESaIS1_ELN9__gnu_cxx12_Lock_policyE2EE10_M_disposeEv@Base 0.35.3
 _ZNSt23_Sp_counted_ptr_inplaceIN6libdnf11TransactionESaIS1_ELN9__gnu_cxx12_Lock_policyE2EE14_M_get_deleterERKSt9type_info@Base 0.35.3
 _ZNSt23_Sp_counted_ptr_inplaceIN6libdnf11TransactionESaIS1_ELN9__gnu_cxx12_Lock_policyE2EED0Ev@Base 0.35.3
 _ZNSt23_Sp_counted_ptr_inplaceIN6libdnf11TransactionESaIS1_ELN9__gnu_cxx12_Lock_policyE2EED1Ev@Base 0.35.3
 _ZNSt23_Sp_counted_ptr_inplaceIN6libdnf11TransactionESaIS1_ELN9__gnu_cxx12_Lock_policyE2EED2Ev@Base 0.35.3
 _ZNSt23_Sp_counted_ptr_inplaceIN6libdnf12swdb_private4RepoESaIS2_ELN9__gnu_cxx12_Lock_policyE2EE10_M_destroyEv@Base 0.35.3
 _ZNSt23_Sp_counted_ptr_inplaceIN6libdnf12swdb_private4RepoESaIS2_ELN9__gnu_cxx12_Lock_policyE2EE10_M_disposeEv@Base 0.35.3
 _ZNSt23_Sp_counted_ptr_inplaceIN6libdnf12swdb_private4RepoESaIS2_ELN9__gnu_cxx12_Lock_policyE2EE14_M_get_deleterERKSt9type_info@Base 0.35.3
 _ZNSt23_Sp_counted_ptr_inplaceIN6libdnf12swdb_private4RepoESaIS2_ELN9__gnu_cxx12_Lock_policyE2EED0Ev@Base 0.35.3
 _ZNSt23_Sp_counted_ptr_inplaceIN6libdnf12swdb_private4RepoESaIS2_ELN9__gnu_cxx12_Lock_policyE2EED1Ev@Base 0.35.3
 _ZNSt23_Sp_counted_ptr_inplaceIN6libdnf12swdb_private4RepoESaIS2_ELN9__gnu_cxx12_Lock_policyE2EED2Ev@Base 0.35.3
 _ZNSt23_Sp_counted_ptr_inplaceIN6libdnf14CompressedFileESaIS1_ELN9__gnu_cxx12_Lock_policyE2EE10_M_destroyEv@Base 0.35.3
 _ZNSt23_Sp_counted_ptr_inplaceIN6libdnf14CompressedFileESaIS1_ELN9__gnu_cxx12_Lock_policyE2EE10_M_disposeEv@Base 0.35.3
 _ZNSt23_Sp_counted_ptr_inplaceIN6libdnf14CompressedFileESaIS1_ELN9__gnu_cxx12_Lock_policyE2EE14_M_get_deleterERKSt9type_info@Base 0.35.3
 _ZNSt23_Sp_counted_ptr_inplaceIN6libdnf14CompressedFileESaIS1_ELN9__gnu_cxx12_Lock_policyE2EED0Ev@Base 0.35.3
 _ZNSt23_Sp_counted_ptr_inplaceIN6libdnf14CompressedFileESaIS1_ELN9__gnu_cxx12_Lock_policyE2EED1Ev@Base 0.35.3
 _ZNSt23_Sp_counted_ptr_inplaceIN6libdnf14CompressedFileESaIS1_ELN9__gnu_cxx12_Lock_policyE2EED2Ev@Base 0.35.3
 _ZNSt23_Sp_counted_ptr_inplaceIN6libdnf14CompsGroupItemESaIS1_ELN9__gnu_cxx12_Lock_policyE2EE10_M_destroyEv@Base 0.35.3
 _ZNSt23_Sp_counted_ptr_inplaceIN6libdnf14CompsGroupItemESaIS1_ELN9__gnu_cxx12_Lock_policyE2EE10_M_disposeEv@Base 0.35.3
 _ZNSt23_Sp_counted_ptr_inplaceIN6libdnf14CompsGroupItemESaIS1_ELN9__gnu_cxx12_Lock_policyE2EE14_M_get_deleterERKSt9type_info@Base 0.35.3
 _ZNSt23_Sp_counted_ptr_inplaceIN6libdnf14CompsGroupItemESaIS1_ELN9__gnu_cxx12_Lock_policyE2EED0Ev@Base 0.35.3
 _ZNSt23_Sp_counted_ptr_inplaceIN6libdnf14CompsGroupItemESaIS1_ELN9__gnu_cxx12_Lock_policyE2EED1Ev@Base 0.35.3
 _ZNSt23_Sp_counted_ptr_inplaceIN6libdnf14CompsGroupItemESaIS1_ELN9__gnu_cxx12_Lock_policyE2EED2Ev@Base 0.35.3
 _ZNSt23_Sp_counted_ptr_inplaceIN6libdnf15TransactionItemESaIS1_ELN9__gnu_cxx12_Lock_policyE2EE10_M_destroyEv@Base 0.35.3
 _ZNSt23_Sp_counted_ptr_inplaceIN6libdnf15TransactionItemESaIS1_ELN9__gnu_cxx12_Lock_policyE2EE10_M_disposeEv@Base 0.35.3
 _ZNSt23_Sp_counted_ptr_inplaceIN6libdnf15TransactionItemESaIS1_ELN9__gnu_cxx12_Lock_policyE2EE14_M_get_deleterERKSt9type_info@Base 0.35.3
 _ZNSt23_Sp_counted_ptr_inplaceIN6libdnf15TransactionItemESaIS1_ELN9__gnu_cxx12_Lock_policyE2EED0Ev@Base 0.35.3
 _ZNSt23_Sp_counted_ptr_inplaceIN6libdnf15TransactionItemESaIS1_ELN9__gnu_cxx12_Lock_policyE2EED1Ev@Base 0.35.3
 _ZNSt23_Sp_counted_ptr_inplaceIN6libdnf15TransactionItemESaIS1_ELN9__gnu_cxx12_Lock_policyE2EED2Ev@Base 0.35.3
 _ZNSt23_Sp_counted_ptr_inplaceIN6libdnf17CompsGroupPackageESaIS1_ELN9__gnu_cxx12_Lock_policyE2EE10_M_destroyEv@Base 0.35.3
 _ZNSt23_Sp_counted_ptr_inplaceIN6libdnf17CompsGroupPackageESaIS1_ELN9__gnu_cxx12_Lock_policyE2EE10_M_disposeEv@Base 0.35.3
 _ZNSt23_Sp_counted_ptr_inplaceIN6libdnf17CompsGroupPackageESaIS1_ELN9__gnu_cxx12_Lock_policyE2EE14_M_get_deleterERKSt9type_info@Base 0.35.3
 _ZNSt23_Sp_counted_ptr_inplaceIN6libdnf17CompsGroupPackageESaIS1_ELN9__gnu_cxx12_Lock_policyE2EED0Ev@Base 0.35.3
 _ZNSt23_Sp_counted_ptr_inplaceIN6libdnf17CompsGroupPackageESaIS1_ELN9__gnu_cxx12_Lock_policyE2EED1Ev@Base 0.35.3
 _ZNSt23_Sp_counted_ptr_inplaceIN6libdnf17CompsGroupPackageESaIS1_ELN9__gnu_cxx12_Lock_policyE2EED2Ev@Base 0.35.3
 _ZNSt23_Sp_counted_ptr_inplaceIN6libdnf19DependencyContainerESaIS1_ELN9__gnu_cxx12_Lock_policyE2EE10_M_destroyEv@Base 0.35.3
 _ZNSt23_Sp_counted_ptr_inplaceIN6libdnf19DependencyContainerESaIS1_ELN9__gnu_cxx12_Lock_policyE2EE10_M_disposeEv@Base 0.35.3
 _ZNSt23_Sp_counted_ptr_inplaceIN6libdnf19DependencyContainerESaIS1_ELN9__gnu_cxx12_Lock_policyE2EE14_M_get_deleterERKSt9type_info@Base 0.35.3
 _ZNSt23_Sp_counted_ptr_inplaceIN6libdnf19DependencyContainerESaIS1_ELN9__gnu_cxx12_Lock_policyE2EED0Ev@Base 0.35.3
 _ZNSt23_Sp_counted_ptr_inplaceIN6libdnf19DependencyContainerESaIS1_ELN9__gnu_cxx12_Lock_policyE2EED1Ev@Base 0.35.3
 _ZNSt23_Sp_counted_ptr_inplaceIN6libdnf19DependencyContainerESaIS1_ELN9__gnu_cxx12_Lock_policyE2EED2Ev@Base 0.35.3
 _ZNSt23_Sp_counted_ptr_inplaceIN6libdnf20CompsEnvironmentItemESaIS1_ELN9__gnu_cxx12_Lock_policyE2EE10_M_destroyEv@Base 0.35.3
 _ZNSt23_Sp_counted_ptr_inplaceIN6libdnf20CompsEnvironmentItemESaIS1_ELN9__gnu_cxx12_Lock_policyE2EE10_M_disposeEv@Base 0.35.3
 _ZNSt23_Sp_counted_ptr_inplaceIN6libdnf20CompsEnvironmentItemESaIS1_ELN9__gnu_cxx12_Lock_policyE2EE14_M_get_deleterERKSt9type_info@Base 0.35.3
 _ZNSt23_Sp_counted_ptr_inplaceIN6libdnf20CompsEnvironmentItemESaIS1_ELN9__gnu_cxx12_Lock_policyE2EED0Ev@Base 0.35.3
 _ZNSt23_Sp_counted_ptr_inplaceIN6libdnf20CompsEnvironmentItemESaIS1_ELN9__gnu_cxx12_Lock_policyE2EED1Ev@Base 0.35.3
 _ZNSt23_Sp_counted_ptr_inplaceIN6libdnf20CompsEnvironmentItemESaIS1_ELN9__gnu_cxx12_Lock_policyE2EED2Ev@Base 0.35.3
 _ZNSt23_Sp_counted_ptr_inplaceIN6libdnf21CompsEnvironmentGroupESaIS1_ELN9__gnu_cxx12_Lock_policyE2EE10_M_destroyEv@Base 0.35.3
 _ZNSt23_Sp_counted_ptr_inplaceIN6libdnf21CompsEnvironmentGroupESaIS1_ELN9__gnu_cxx12_Lock_policyE2EE10_M_disposeEv@Base 0.35.3
 _ZNSt23_Sp_counted_ptr_inplaceIN6libdnf21CompsEnvironmentGroupESaIS1_ELN9__gnu_cxx12_Lock_policyE2EE14_M_get_deleterERKSt9type_info@Base 0.35.3
 _ZNSt23_Sp_counted_ptr_inplaceIN6libdnf21CompsEnvironmentGroupESaIS1_ELN9__gnu_cxx12_Lock_policyE2EED0Ev@Base 0.35.3
 _ZNSt23_Sp_counted_ptr_inplaceIN6libdnf21CompsEnvironmentGroupESaIS1_ELN9__gnu_cxx12_Lock_policyE2EED1Ev@Base 0.35.3
 _ZNSt23_Sp_counted_ptr_inplaceIN6libdnf21CompsEnvironmentGroupESaIS1_ELN9__gnu_cxx12_Lock_policyE2EED2Ev@Base 0.35.3
 _ZNSt23_Sp_counted_ptr_inplaceIN6libdnf22TransformerTransactionESaIS1_ELN9__gnu_cxx12_Lock_policyE2EE10_M_destroyEv@Base 0.35.3
 _ZNSt23_Sp_counted_ptr_inplaceIN6libdnf22TransformerTransactionESaIS1_ELN9__gnu_cxx12_Lock_policyE2EE10_M_disposeEv@Base 0.35.3
 _ZNSt23_Sp_counted_ptr_inplaceIN6libdnf22TransformerTransactionESaIS1_ELN9__gnu_cxx12_Lock_policyE2EE14_M_get_deleterERKSt9type_info@Base 0.35.3
 _ZNSt23_Sp_counted_ptr_inplaceIN6libdnf22TransformerTransactionESaIS1_ELN9__gnu_cxx12_Lock_policyE2EED0Ev@Base 0.35.3
 _ZNSt23_Sp_counted_ptr_inplaceIN6libdnf22TransformerTransactionESaIS1_ELN9__gnu_cxx12_Lock_policyE2EED1Ev@Base 0.35.3
 _ZNSt23_Sp_counted_ptr_inplaceIN6libdnf22TransformerTransactionESaIS1_ELN9__gnu_cxx12_Lock_policyE2EED2Ev@Base 0.35.3
 _ZNSt23_Sp_counted_ptr_inplaceIN6libdnf4FileESaIS1_ELN9__gnu_cxx12_Lock_policyE2EE10_M_destroyEv@Base 0.35.3
 _ZNSt23_Sp_counted_ptr_inplaceIN6libdnf4FileESaIS1_ELN9__gnu_cxx12_Lock_policyE2EE10_M_disposeEv@Base 0.35.3
 _ZNSt23_Sp_counted_ptr_inplaceIN6libdnf4FileESaIS1_ELN9__gnu_cxx12_Lock_policyE2EE14_M_get_deleterERKSt9type_info@Base 0.35.3
 _ZNSt23_Sp_counted_ptr_inplaceIN6libdnf4FileESaIS1_ELN9__gnu_cxx12_Lock_policyE2EED0Ev@Base 0.35.3
 _ZNSt23_Sp_counted_ptr_inplaceIN6libdnf4FileESaIS1_ELN9__gnu_cxx12_Lock_policyE2EED1Ev@Base 0.35.3
 _ZNSt23_Sp_counted_ptr_inplaceIN6libdnf4FileESaIS1_ELN9__gnu_cxx12_Lock_policyE2EED2Ev@Base 0.35.3
 _ZNSt23_Sp_counted_ptr_inplaceIN6libdnf7RPMItemESaIS1_ELN9__gnu_cxx12_Lock_policyE2EE10_M_destroyEv@Base 0.35.3
 _ZNSt23_Sp_counted_ptr_inplaceIN6libdnf7RPMItemESaIS1_ELN9__gnu_cxx12_Lock_policyE2EE10_M_disposeEv@Base 0.35.3
 _ZNSt23_Sp_counted_ptr_inplaceIN6libdnf7RPMItemESaIS1_ELN9__gnu_cxx12_Lock_policyE2EE14_M_get_deleterERKSt9type_info@Base 0.35.3
 _ZNSt23_Sp_counted_ptr_inplaceIN6libdnf7RPMItemESaIS1_ELN9__gnu_cxx12_Lock_policyE2EED0Ev@Base 0.35.3
 _ZNSt23_Sp_counted_ptr_inplaceIN6libdnf7RPMItemESaIS1_ELN9__gnu_cxx12_Lock_policyE2EED1Ev@Base 0.35.3
 _ZNSt23_Sp_counted_ptr_inplaceIN6libdnf7RPMItemESaIS1_ELN9__gnu_cxx12_Lock_policyE2EED2Ev@Base 0.35.3
 _ZNSt24uniform_int_distributionIiEclISt26linear_congruential_engineImLm16807ELm0ELm2147483647EEEEiRT_RKNS0_10param_typeE@Base 0.35.3
 _ZNSt3mapIN6libdnf21TransactionItemActionENSt7__cxx1112basic_stringIcSt11char_traitsIcESaIcEEESt4lessIS1_ESaISt4pairIKS1_S7_EEEC1ESt16initializer_listISC_ERKS9_RKSD_@Base 0.35.3
 _ZNSt3mapIN6libdnf21TransactionItemActionENSt7__cxx1112basic_stringIcSt11char_traitsIcESaIcEEESt4lessIS1_ESaISt4pairIKS1_S7_EEEC2ESt16initializer_listISC_ERKS9_RKSD_@Base 0.35.3
 _ZNSt3mapIN6libdnf21TransactionItemActionENSt7__cxx1112basic_stringIcSt11char_traitsIcESaIcEEESt4lessIS1_ESaISt4pairIKS1_S7_EEED1Ev@Base 0.35.3
 _ZNSt3mapIN6libdnf21TransactionItemActionENSt7__cxx1112basic_stringIcSt11char_traitsIcESaIcEEESt4lessIS1_ESaISt4pairIKS1_S7_EEED2Ev@Base 0.35.3
 _ZNSt3mapINSt7__cxx1112basic_stringIcSt11char_traitsIcESaIcEEEN6libdnf21TransactionItemActionESt4lessIS5_ESaISt4pairIKS5_S7_EEEC1ESt16initializer_listISC_ERKS9_RKSD_@Base 0.35.3
 _ZNSt3mapINSt7__cxx1112basic_stringIcSt11char_traitsIcESaIcEEEN6libdnf21TransactionItemActionESt4lessIS5_ESaISt4pairIKS5_S7_EEEC2ESt16initializer_listISC_ERKS9_RKSD_@Base 0.35.3
 _ZNSt3mapINSt7__cxx1112basic_stringIcSt11char_traitsIcESaIcEEEN6libdnf21TransactionItemActionESt4lessIS5_ESaISt4pairIKS5_S7_EEED1Ev@Base 0.35.3
 _ZNSt3mapINSt7__cxx1112basic_stringIcSt11char_traitsIcESaIcEEEN6libdnf21TransactionItemActionESt4lessIS5_ESaISt4pairIKS5_S7_EEED2Ev@Base 0.35.3
 _ZNSt3mapINSt7__cxx1112basic_stringIcSt11char_traitsIcESaIcEEEN6libdnf21TransactionItemReasonESt4lessIS5_ESaISt4pairIKS5_S7_EEEC1ESt16initializer_listISC_ERKS9_RKSD_@Base 0.35.3
 _ZNSt3mapINSt7__cxx1112basic_stringIcSt11char_traitsIcESaIcEEEN6libdnf21TransactionItemReasonESt4lessIS5_ESaISt4pairIKS5_S7_EEEC2ESt16initializer_listISC_ERKS9_RKSD_@Base 0.35.3
 _ZNSt3mapINSt7__cxx1112basic_stringIcSt11char_traitsIcESaIcEEEN6libdnf21TransactionItemReasonESt4lessIS5_ESaISt4pairIKS5_S7_EEED1Ev@Base 0.35.3
 _ZNSt3mapINSt7__cxx1112basic_stringIcSt11char_traitsIcESaIcEEEN6libdnf21TransactionItemReasonESt4lessIS5_ESaISt4pairIKS5_S7_EEED2Ev@Base 0.35.3
 _ZNSt3mapINSt7__cxx1112basic_stringIcSt11char_traitsIcESaIcEEES5_St4lessIS5_ESaISt4pairIKS5_S5_EEEixEOS5_@Base 0.35.3
 _ZNSt3mapINSt7__cxx1112basic_stringIcSt11char_traitsIcESaIcEEESt10shared_ptrIN6libdnf12swdb_private4RepoEESt4lessIS5_ESaISt4pairIKS5_SA_EEED1Ev@Base 0.35.3
 _ZNSt3mapINSt7__cxx1112basic_stringIcSt11char_traitsIcESaIcEEESt10shared_ptrIN6libdnf12swdb_private4RepoEESt4lessIS5_ESaISt4pairIKS5_SA_EEED2Ev@Base 0.35.3
 _ZNSt3mapINSt7__cxx1112basic_stringIcSt11char_traitsIcESaIcEEESt6vectorIS5_SaIS5_EESt4lessIS5_ESaISt4pairIKS5_S8_EEEC1ESt16initializer_listISD_ERKSA_RKSE_@Base 0.35.3
 _ZNSt3mapINSt7__cxx1112basic_stringIcSt11char_traitsIcESaIcEEESt6vectorIS5_SaIS5_EESt4lessIS5_ESaISt4pairIKS5_S8_EEEC2ESt16initializer_listISD_ERKSA_RKSE_@Base 0.35.3
 _ZNSt3mapINSt7__cxx1112basic_stringIcSt11char_traitsIcESaIcEEESt6vectorIS5_SaIS5_EESt4lessIS5_ESaISt4pairIKS5_S8_EEED1Ev@Base 0.35.3
 _ZNSt3mapINSt7__cxx1112basic_stringIcSt11char_traitsIcESaIcEEESt6vectorIS5_SaIS5_EESt4lessIS5_ESaISt4pairIKS5_S8_EEED2Ev@Base 0.35.3
 _ZNSt3mapIiPKcSt4lessIiESaISt4pairIKiS1_EEEC1ESt16initializer_listIS6_ERKS3_RKS7_@Base 0.35.3
 _ZNSt3mapIiPKcSt4lessIiESaISt4pairIKiS1_EEEC2ESt16initializer_listIS6_ERKS3_RKS7_@Base 0.35.3
 _ZNSt3mapIiPKcSt4lessIiESaISt4pairIKiS1_EEED1Ev@Base 0.35.3
 _ZNSt3mapIiPKcSt4lessIiESaISt4pairIKiS1_EEED2Ev@Base 0.35.3
 _ZNSt4pairIKNSt7__cxx1112basic_stringIcSt11char_traitsIcESaIcEEESt6vectorIS5_SaIS5_EEED1Ev@Base 0.35.3
 _ZNSt4pairIKNSt7__cxx1112basic_stringIcSt11char_traitsIcESaIcEEESt6vectorIS5_SaIS5_EEED2Ev@Base 0.35.3
 _ZNSt4pairINSt7__cxx1112basic_stringIcSt11char_traitsIcESaIcEEEN6libdnf16PreserveOrderMapIS5_S5_St8equal_toIS5_EEEED1Ev@Base 0.35.3
 _ZNSt4pairINSt7__cxx1112basic_stringIcSt11char_traitsIcESaIcEEEN6libdnf16PreserveOrderMapIS5_S5_St8equal_toIS5_EEEED2Ev@Base 0.35.3
 _ZNSt4pairINSt7__cxx1112basic_stringIcSt11char_traitsIcESaIcEEES5_ED1Ev@Base 0.35.3
 _ZNSt4pairINSt7__cxx1112basic_stringIcSt11char_traitsIcESaIcEEES5_ED2Ev@Base 0.35.3
 _ZNSt5arrayIKNSt7__cxx1112basic_stringIcSt11char_traitsIcESaIcEEELm1EED1Ev@Base 0.35.3
 _ZNSt5arrayIKNSt7__cxx1112basic_stringIcSt11char_traitsIcESaIcEEELm1EED2Ev@Base 0.35.3
 _ZNSt6vectorIN6libdnf11AdvisoryPkgESaIS1_EE17_M_realloc_insertIJRKP8_DnfSackRKiRiSB_SB_RPKcEEEvN9__gnu_cxx17__normal_iteratorIPS1_S3_EEDpOT_@Base 0.35.3
 _ZNSt6vectorIN6libdnf11AdvisoryPkgESaIS1_EE17_M_realloc_insertIJRKS1_EEEvN9__gnu_cxx17__normal_iteratorIPS1_S3_EEDpOT_@Base 0.35.3
 _ZNSt6vectorIN6libdnf11AdvisoryPkgESaIS1_EED1Ev@Base 0.35.3
 _ZNSt6vectorIN6libdnf11AdvisoryPkgESaIS1_EED2Ev@Base 0.35.3
 _ZNSt6vectorIN6libdnf11AdvisoryRefESaIS1_EE17_M_realloc_insertIJRKP8_DnfSackRKiRiEEEvN9__gnu_cxx17__normal_iteratorIPS1_S3_EEDpOT_@Base 0.35.3
 _ZNSt6vectorIN6libdnf13ModuleProfileESaIS1_EE12emplace_backIJS1_EEEvDpOT_@Base 0.35.3
 _ZNSt6vectorIN6libdnf14AdvisoryModuleESaIS1_EE17_M_realloc_insertIJRKP8_DnfSackRKiRiSB_SB_SB_SB_EEEvN9__gnu_cxx17__normal_iteratorIPS1_S3_EEDpOT_@Base 0.35.3
 _ZNSt6vectorIN6libdnf14ModuleMetadataESaIS1_EE17_M_realloc_insertIJS1_EEEvN9__gnu_cxx17__normal_iteratorIPS1_S3_EEDpOT_@Base 0.35.3
 _ZNSt6vectorIN6libdnf16TransactionStateESaIS1_EE17_M_realloc_insertIJS1_EEEvN9__gnu_cxx17__normal_iteratorIPS1_S3_EEDpOT_@Base 0.35.3
 _ZNSt6vectorIN6libdnf18ModuleDependenciesESaIS1_EE17_M_realloc_insertIJP21_ModulemdDependenciesEEEvN9__gnu_cxx17__normal_iteratorIPS1_S3_EEDpOT_@Base 0.35.3
 _ZNSt6vectorIN6libdnf3KeyESaIS1_EE17_M_realloc_insertIJRP10_gpgme_keyRP13_gpgme_subkeyEEEvN9__gnu_cxx17__normal_iteratorIPS1_S3_EEDpOT_@Base 0.35.3
 _ZNSt6vectorIN6libdnf3KeyESaIS1_EED1Ev@Base 0.35.3
 _ZNSt6vectorIN6libdnf3KeyESaIS1_EED2Ev@Base 0.35.3
 _ZNSt6vectorIN6libdnf6FilterESaIS1_EE12emplace_backIJS1_EEEvDpOT_@Base 0.35.3
 _ZNSt6vectorIN6libdnf6FilterESaIS1_EE17_M_realloc_insertIJS1_EEEvN9__gnu_cxx17__normal_iteratorIPS1_S3_EEDpOT_@Base 0.35.3
 _ZNSt6vectorIN6libdnf6FilterESaIS1_EEaSERKS3_@Base 0.35.3
 _ZNSt6vectorIN6libdnf6_MatchESaIS1_EE17_M_realloc_insertIJRKS1_EEEvN9__gnu_cxx17__normal_iteratorIPS1_S3_EEDpOT_@Base 0.35.3
 _ZNSt6vectorIN6libdnf6_MatchESaIS1_EE7reserveEm@Base 0.35.3
 _ZNSt6vectorIN6libdnf7NevraIDESaIS1_EE17_M_realloc_insertIJRKS1_EEEvN9__gnu_cxx17__normal_iteratorIPS1_S3_EEDpOT_@Base 0.35.3
 _ZNSt6vectorIN6libdnf7Plugins16PluginWithHandleESaIS2_EE17_M_realloc_insertIJS2_EEEvN9__gnu_cxx17__normal_iteratorIPS2_S4_EEDpOT_@Base 0.35.3
 _ZNSt6vectorIN6libdnf9ChangelogESaIS1_EE17_M_realloc_insertIJlNSt7__cxx1112basic_stringIcSt11char_traitsIcESaIcEEESA_EEEvN9__gnu_cxx17__normal_iteratorIPS1_S3_EEDpOT_@Base 0.35.3
 _ZNSt6vectorINSt7__cxx1112basic_stringIcSt11char_traitsIcESaIcEEESaIS5_EE12emplace_backIJRKS5_EEEvDpOT_@Base 0.35.3
 _ZNSt6vectorINSt7__cxx1112basic_stringIcSt11char_traitsIcESaIcEEESaIS5_EE12emplace_backIJS5_EEEvDpOT_@Base 0.35.3
 _ZNSt6vectorINSt7__cxx1112basic_stringIcSt11char_traitsIcESaIcEEESaIS5_EE17_M_realloc_insertIJPKcEEEvN9__gnu_cxx17__normal_iteratorIPS5_S7_EEDpOT_@Base 0.35.3
 _ZNSt6vectorINSt7__cxx1112basic_stringIcSt11char_traitsIcESaIcEEESaIS5_EE17_M_realloc_insertIJRKS5_EEEvN9__gnu_cxx17__normal_iteratorIPS5_S7_EEDpOT_@Base 0.35.3
 _ZNSt6vectorINSt7__cxx1112basic_stringIcSt11char_traitsIcESaIcEEESaIS5_EE17_M_realloc_insertIJRPcEEEvN9__gnu_cxx17__normal_iteratorIPS5_S7_EEDpOT_@Base 0.35.3
 _ZNSt6vectorINSt7__cxx1112basic_stringIcSt11char_traitsIcESaIcEEESaIS5_EE17_M_realloc_insertIJRS5_EEEvN9__gnu_cxx17__normal_iteratorIPS5_S7_EEDpOT_@Base 0.35.3
 _ZNSt6vectorINSt7__cxx1112basic_stringIcSt11char_traitsIcESaIcEEESaIS5_EE17_M_realloc_insertIJS5_EEEvN9__gnu_cxx17__normal_iteratorIPS5_S7_EEDpOT_@Base 0.35.3
 _ZNSt6vectorINSt7__cxx1112basic_stringIcSt11char_traitsIcESaIcEEESaIS5_EEC1ESt16initializer_listIS5_ERKS6_@Base 0.35.3
 _ZNSt6vectorINSt7__cxx1112basic_stringIcSt11char_traitsIcESaIcEEESaIS5_EEC2ESt16initializer_listIS5_ERKS6_@Base 0.35.3
 _ZNSt6vectorINSt7__cxx1112basic_stringIcSt11char_traitsIcESaIcEEESaIS5_EED1Ev@Base 0.35.3
 _ZNSt6vectorINSt7__cxx1112basic_stringIcSt11char_traitsIcESaIcEEESaIS5_EED2Ev@Base 0.35.3
 _ZNSt6vectorINSt7__cxx1112basic_stringIcSt11char_traitsIcESaIcEEESaIS5_EEaSERKS7_@Base 0.35.3
 _ZNSt6vectorIPKcSaIS1_EE12emplace_backIJS1_EEEvDpOT_@Base 0.35.3
 _ZNSt6vectorIPKcSaIS1_EE17_M_realloc_insertIJS1_EEEvN9__gnu_cxx17__normal_iteratorIPS1_S3_EEDpOT_@Base 0.35.3
 _ZNSt6vectorIPN6libdnf13ModulePackageESaIS2_EE12emplace_backIJS2_EEEvDpOT_@Base 0.35.3
 _ZNSt6vectorIPN6libdnf13ModulePackageESaIS2_EE17_M_realloc_insertIJRKS2_EEEvN9__gnu_cxx17__normal_iteratorIPS2_S4_EEDpOT_@Base 0.35.3
 _ZNSt6vectorIPN6libdnf13ModulePackageESaIS2_EEaSERKS4_@Base 0.35.3
 _ZNSt6vectorIS_INSt7__cxx1112basic_stringIcSt11char_traitsIcESaIcEEESaIS5_EESaIS7_EE17_M_realloc_insertIJRKS7_EEEvN9__gnu_cxx17__normal_iteratorIPS7_S9_EEDpOT_@Base 0.35.3
 _ZNSt6vectorIS_IPN6libdnf13ModulePackageESaIS2_EESaIS4_EE17_M_realloc_insertIJS4_EEEvN9__gnu_cxx17__normal_iteratorIPS4_S6_EEDpOT_@Base 0.35.3
 _ZNSt6vectorIS_IPN6libdnf13ModulePackageESaIS2_EESaIS4_EED1Ev@Base 0.35.3
 _ZNSt6vectorIS_IPN6libdnf13ModulePackageESaIS2_EESaIS4_EED2Ev@Base 0.35.3
 _ZNSt6vectorIS_IS_IPN6libdnf13ModulePackageESaIS2_EESaIS4_EESaIS6_EE12emplace_backIJS6_EEEvDpOT_@Base 0.35.3
 _ZNSt6vectorIS_IS_IPN6libdnf13ModulePackageESaIS2_EESaIS4_EESaIS6_EE17_M_realloc_insertIJS6_EEEvN9__gnu_cxx17__normal_iteratorIPS6_S8_EEDpOT_@Base 0.35.3
 _ZNSt6vectorISt10shared_ptrI4LineESaIS2_EE17_M_realloc_insertIJRKS2_EEEvN9__gnu_cxx17__normal_iteratorIPS2_S4_EEDpOT_@Base 0.35.3
 _ZNSt6vectorISt10shared_ptrI4LineESaIS2_EED1Ev@Base 0.35.3
 _ZNSt6vectorISt10shared_ptrI4LineESaIS2_EED2Ev@Base 0.35.3
 _ZNSt6vectorISt10shared_ptrI6ColumnESaIS2_EE17_M_realloc_insertIJRKS2_EEEvN9__gnu_cxx17__normal_iteratorIPS2_S4_EEDpOT_@Base 0.35.3
 _ZNSt6vectorISt10shared_ptrI6ColumnESaIS2_EED1Ev@Base 0.35.3
 _ZNSt6vectorISt10shared_ptrI6ColumnESaIS2_EED2Ev@Base 0.35.3
 _ZNSt6vectorISt10shared_ptrIN6libdnf11TransactionEESaIS3_EE17_M_realloc_insertIJRKS3_EEEvN9__gnu_cxx17__normal_iteratorIPS3_S5_EEDpOT_@Base 0.35.3
 _ZNSt6vectorISt10shared_ptrIN6libdnf15TransactionItemEESaIS3_EE15_M_range_insertIN9__gnu_cxx17__normal_iteratorIPS3_S5_EEEEvSA_T_SB_St20forward_iterator_tag@Base 0.35.3
 _ZNSt6vectorISt10shared_ptrIN6libdnf15TransactionItemEESaIS3_EE17_M_realloc_insertIJRKS3_EEEvN9__gnu_cxx17__normal_iteratorIPS3_S5_EEDpOT_@Base 0.35.3
 _ZNSt6vectorISt10shared_ptrIN6libdnf15TransactionItemEESaIS3_EE17_M_realloc_insertIJS3_EEEvN9__gnu_cxx17__normal_iteratorIPS3_S5_EEDpOT_@Base 0.35.3
 _ZNSt6vectorISt10shared_ptrIN6libdnf15TransactionItemEESaIS3_EED1Ev@Base 0.35.3
 _ZNSt6vectorISt10shared_ptrIN6libdnf15TransactionItemEESaIS3_EED2Ev@Base 0.35.3
 _ZNSt6vectorISt10shared_ptrIN6libdnf17CompsGroupPackageEESaIS3_EE17_M_realloc_insertIJRKS3_EEEvN9__gnu_cxx17__normal_iteratorIPS3_S5_EEDpOT_@Base 0.35.3
 _ZNSt6vectorISt10shared_ptrIN6libdnf17CompsGroupPackageEESaIS3_EED1Ev@Base 0.35.3
 _ZNSt6vectorISt10shared_ptrIN6libdnf17CompsGroupPackageEESaIS3_EED2Ev@Base 0.35.3
 _ZNSt6vectorISt10shared_ptrIN6libdnf19TransactionItemBaseEESaIS3_EE17_M_realloc_insertIJRKS3_EEEvN9__gnu_cxx17__normal_iteratorIPS3_S5_EEDpOT_@Base 0.35.3
 _ZNSt6vectorISt10shared_ptrIN6libdnf21CompsEnvironmentGroupEESaIS3_EE17_M_realloc_insertIJRKS3_EEEvN9__gnu_cxx17__normal_iteratorIPS3_S5_EEDpOT_@Base 0.35.3
 _ZNSt6vectorISt10shared_ptrIN6libdnf21CompsEnvironmentGroupEESaIS3_EED1Ev@Base 0.35.3
 _ZNSt6vectorISt10shared_ptrIN6libdnf21CompsEnvironmentGroupEESaIS3_EED2Ev@Base 0.35.3
 _ZNSt6vectorISt10shared_ptrIN6libdnf22TransformerTransactionEESaIS3_EED1Ev@Base 0.35.3
 _ZNSt6vectorISt10shared_ptrIN6libdnf22TransformerTransactionEESaIS3_EED2Ev@Base 0.35.3
 _ZNSt6vectorISt3mapINSt7__cxx1112basic_stringIcSt11char_traitsIcESaIcEEES_IS6_SaIS6_EESt4lessIS6_ESaISt4pairIKS6_S8_EEESaISF_EE17_M_realloc_insertIJRKSF_EEEvN9__gnu_cxx17__normal_iteratorIPSF_SH_EEDpOT_@Base 0.35.3
 _ZNSt6vectorISt4pairINSt7__cxx1112basic_stringIcSt11char_traitsIcESaIcEEEN6libdnf16PreserveOrderMapIS6_S6_St8equal_toIS6_EEEESaISC_EE17_M_realloc_insertIJSC_EEEvN9__gnu_cxx17__normal_iteratorIPSC_SE_EEDpOT_@Base 0.35.3
 _ZNSt6vectorISt4pairINSt7__cxx1112basic_stringIcSt11char_traitsIcESaIcEEEN6libdnf16PreserveOrderMapIS6_S6_St8equal_toIS6_EEEESaISC_EED1Ev@Base 0.35.3
 _ZNSt6vectorISt4pairINSt7__cxx1112basic_stringIcSt11char_traitsIcESaIcEEEN6libdnf16PreserveOrderMapIS6_S6_St8equal_toIS6_EEEESaISC_EED2Ev@Base 0.35.3
 _ZNSt6vectorISt4pairINSt7__cxx1112basic_stringIcSt11char_traitsIcESaIcEEES6_ESaIS7_EE12emplace_backIJS7_EEEvDpOT_@Base 0.35.3
 _ZNSt6vectorISt4pairINSt7__cxx1112basic_stringIcSt11char_traitsIcESaIcEEES6_ESaIS7_EE17_M_realloc_insertIJRPcSC_EEEvN9__gnu_cxx17__normal_iteratorIPS7_S9_EEDpOT_@Base 0.35.3
 _ZNSt6vectorISt4pairINSt7__cxx1112basic_stringIcSt11char_traitsIcESaIcEEES6_ESaIS7_EE17_M_realloc_insertIJS7_EEEvN9__gnu_cxx17__normal_iteratorIPS7_S9_EEDpOT_@Base 0.35.3
 _ZNSt6vectorISt4pairINSt7__cxx1112basic_stringIcSt11char_traitsIcESaIcEEES6_ESaIS7_EED1Ev@Base 0.35.3
 _ZNSt6vectorISt4pairINSt7__cxx1112basic_stringIcSt11char_traitsIcESaIcEEES6_ESaIS7_EED2Ev@Base 0.35.3
 _ZNSt6vectorISt4pairIiNSt7__cxx1112basic_stringIcSt11char_traitsIcESaIcEEEESaIS7_EE15_M_range_insertIN9__gnu_cxx17__normal_iteratorIPS7_S9_EEEEvSE_T_SF_St20forward_iterator_tag@Base 0.35.3
 _ZNSt6vectorISt4pairIiNSt7__cxx1112basic_stringIcSt11char_traitsIcESaIcEEEESaIS7_EE17_M_realloc_insertIJS7_EEEvN9__gnu_cxx17__normal_iteratorIPS7_S9_EEDpOT_@Base 0.35.3
 _ZNSt6vectorISt4pairIiNSt7__cxx1112basic_stringIcSt11char_traitsIcESaIcEEEESaIS7_EED1Ev@Base 0.35.3
 _ZNSt6vectorISt4pairIiNSt7__cxx1112basic_stringIcSt11char_traitsIcESaIcEEEESaIS7_EED2Ev@Base 0.35.3
 _ZNSt6vectorIcSaIcEE15_M_range_insertIPcEEvN9__gnu_cxx17__normal_iteratorIS3_S1_EET_S7_St20forward_iterator_tag@Base 0.35.3
 _ZNSt6vectorIiSaIiEE17_M_realloc_insertIJRKiEEEvN9__gnu_cxx17__normal_iteratorIPiS1_EEDpOT_@Base 0.35.3
 _ZNSt6vectorIjSaIjEE17_M_realloc_insertIJjEEEvN9__gnu_cxx17__normal_iteratorIPjS1_EEDpOT_@Base 0.35.3
 _ZNSt6vectorIlSaIlEE17_M_realloc_insertIJlEEEvN9__gnu_cxx17__normal_iteratorIPlS1_EEDpOT_@Base 0.35.3
 _ZNSt7__cxx1110_List_baseISt10unique_ptrIN6libdnf15LrHandleLogDataESt14default_deleteIS3_EESaIS6_EE8_M_clearEv@Base 0.35.3
 _ZNSt7__cxx1112basic_stringIcSt11char_traitsIcESaIcEE12_M_constructIPKcEEvT_S8_St20forward_iterator_tag@Base 0.35.3
 _ZNSt7__cxx1112basic_stringIcSt11char_traitsIcESaIcEE12_M_constructIPcEEvT_S7_St20forward_iterator_tag@Base 0.35.3
 _ZNSt7__cxx1115basic_stringbufIcSt11char_traitsIcESaIcEED0Ev@Base 0.35.3
 _ZNSt7__cxx1115basic_stringbufIcSt11char_traitsIcESaIcEED1Ev@Base 0.35.3
 _ZNSt7__cxx1115basic_stringbufIcSt11char_traitsIcESaIcEED2Ev@Base 0.35.3
 _ZNSt7__cxx114listISt10unique_ptrIN6libdnf15LrHandleLogDataESt14default_deleteIS3_EESaIS6_EED1Ev@Base 0.35.3
 _ZNSt7__cxx114listISt10unique_ptrIN6libdnf15LrHandleLogDataESt14default_deleteIS3_EESaIS6_EED2Ev@Base 0.35.3
 _ZNSt8_Rb_treeIN6libdnf21TransactionItemActionESt4pairIKS1_NSt7__cxx1112basic_stringIcSt11char_traitsIcESaIcEEEESt10_Select1stISA_ESt4lessIS1_ESaISA_EE24_M_get_insert_unique_posERS3_@Base 0.35.3
 _ZNSt8_Rb_treeIN6libdnf21TransactionItemActionESt4pairIKS1_NSt7__cxx1112basic_stringIcSt11char_traitsIcESaIcEEEESt10_Select1stISA_ESt4lessIS1_ESaISA_EE29_M_get_insert_hint_unique_posESt23_Rb_tree_const_iteratorISA_ERS3_@Base 0.35.3
 _ZNSt8_Rb_treeIN6libdnf21TransactionItemActionESt4pairIKS1_NSt7__cxx1112basic_stringIcSt11char_traitsIcESaIcEEEESt10_Select1stISA_ESt4lessIS1_ESaISA_EE8_M_eraseEPSt13_Rb_tree_nodeISA_E@Base 0.35.3
 _ZNSt8_Rb_treeINSt7__cxx1112basic_stringIcSt11char_traitsIcESaIcEEES5_St9_IdentityIS5_ESt4lessIS5_ESaIS5_EE17_M_emplace_uniqueIJPKcmEEESt4pairISt17_Rb_tree_iteratorIS5_EbEDpOT_@Base 0.35.3
 _ZNSt8_Rb_treeINSt7__cxx1112basic_stringIcSt11char_traitsIcESaIcEEES5_St9_IdentityIS5_ESt4lessIS5_ESaIS5_EE8_M_eraseEPSt13_Rb_tree_nodeIS5_E@Base 0.35.3
 _ZNSt8_Rb_treeINSt7__cxx1112basic_stringIcSt11char_traitsIcESaIcEEESt4pairIKS5_N6libdnf11OptionBinds4ItemEESt10_Select1stISB_ESt4lessIS5_ESaISB_EE17_M_emplace_uniqueIJRS7_SA_EEES6_ISt17_Rb_tree_iteratorISB_EbEDpOT_@Base 0.35.3
 _ZNSt8_Rb_treeINSt7__cxx1112basic_stringIcSt11char_traitsIcESaIcEEESt4pairIKS5_N6libdnf11OptionBinds4ItemEESt10_Select1stISB_ESt4lessIS5_ESaISB_EE4findERS7_@Base 0.35.3
 _ZNSt8_Rb_treeINSt7__cxx1112basic_stringIcSt11char_traitsIcESaIcEEESt4pairIKS5_N6libdnf11OptionBinds4ItemEESt10_Select1stISB_ESt4lessIS5_ESaISB_EE7_M_copyINSH_11_Alloc_nodeEEEPSt13_Rb_tree_nodeISB_EPKSL_PSt18_Rb_tree_node_baseRT_@Base 0.35.3
 _ZNSt8_Rb_treeINSt7__cxx1112basic_stringIcSt11char_traitsIcESaIcEEESt4pairIKS5_N6libdnf11OptionBinds4ItemEESt10_Select1stISB_ESt4lessIS5_ESaISB_EE8_M_eraseEPSt13_Rb_tree_nodeISB_E@Base 0.35.3
 _ZNSt8_Rb_treeINSt7__cxx1112basic_stringIcSt11char_traitsIcESaIcEEESt4pairIKS5_N6libdnf17MergedTransaction8ItemPairEESt10_Select1stISB_ESt4lessIS5_ESaISB_EE11equal_rangeERS7_@Base 0.35.3
 _ZNSt8_Rb_treeINSt7__cxx1112basic_stringIcSt11char_traitsIcESaIcEEESt4pairIKS5_N6libdnf17MergedTransaction8ItemPairEESt10_Select1stISB_ESt4lessIS5_ESaISB_EE22_M_emplace_hint_uniqueIJRKSt21piecewise_construct_tSt5tupleIJRS7_EESM_IJEEEEESt17_Rb_tree_iteratorISB_ESt23_Rb_tree_const_iteratorISB_EDpOT_@Base 0.35.3
 _ZNSt8_Rb_treeINSt7__cxx1112basic_stringIcSt11char_traitsIcESaIcEEESt4pairIKS5_N6libdnf17MergedTransaction8ItemPairEESt10_Select1stISB_ESt4lessIS5_ESaISB_EE24_M_get_insert_unique_posERS7_@Base 0.35.3
 _ZNSt8_Rb_treeINSt7__cxx1112basic_stringIcSt11char_traitsIcESaIcEEESt4pairIKS5_N6libdnf17MergedTransaction8ItemPairEESt10_Select1stISB_ESt4lessIS5_ESaISB_EE29_M_get_insert_hint_unique_posESt23_Rb_tree_const_iteratorISB_ERS7_@Base 0.35.3
 _ZNSt8_Rb_treeINSt7__cxx1112basic_stringIcSt11char_traitsIcESaIcEEESt4pairIKS5_N6libdnf17MergedTransaction8ItemPairEESt10_Select1stISB_ESt4lessIS5_ESaISB_EE5eraseERS7_@Base 0.35.3
 _ZNSt8_Rb_treeINSt7__cxx1112basic_stringIcSt11char_traitsIcESaIcEEESt4pairIKS5_N6libdnf17MergedTransaction8ItemPairEESt10_Select1stISB_ESt4lessIS5_ESaISB_EE8_M_eraseEPSt13_Rb_tree_nodeISB_E@Base 0.35.3
 _ZNSt8_Rb_treeINSt7__cxx1112basic_stringIcSt11char_traitsIcESaIcEEESt4pairIKS5_N6libdnf21TransactionItemActionEESt10_Select1stISA_ESt4lessIS5_ESaISA_EE24_M_get_insert_unique_posERS7_@Base 0.35.3
 _ZNSt8_Rb_treeINSt7__cxx1112basic_stringIcSt11char_traitsIcESaIcEEESt4pairIKS5_N6libdnf21TransactionItemActionEESt10_Select1stISA_ESt4lessIS5_ESaISA_EE29_M_get_insert_hint_unique_posESt23_Rb_tree_const_iteratorISA_ERS7_@Base 0.35.3
 _ZNSt8_Rb_treeINSt7__cxx1112basic_stringIcSt11char_traitsIcESaIcEEESt4pairIKS5_N6libdnf21TransactionItemActionEESt10_Select1stISA_ESt4lessIS5_ESaISA_EE8_M_eraseEPSt13_Rb_tree_nodeISA_E@Base 0.35.3
 _ZNSt8_Rb_treeINSt7__cxx1112basic_stringIcSt11char_traitsIcESaIcEEESt4pairIKS5_N6libdnf21TransactionItemReasonEESt10_Select1stISA_ESt4lessIS5_ESaISA_EE24_M_get_insert_unique_posERS7_@Base 0.35.3
 _ZNSt8_Rb_treeINSt7__cxx1112basic_stringIcSt11char_traitsIcESaIcEEESt4pairIKS5_N6libdnf21TransactionItemReasonEESt10_Select1stISA_ESt4lessIS5_ESaISA_EE29_M_get_insert_hint_unique_posESt23_Rb_tree_const_iteratorISA_ERS7_@Base 0.35.3
 _ZNSt8_Rb_treeINSt7__cxx1112basic_stringIcSt11char_traitsIcESaIcEEESt4pairIKS5_N6libdnf21TransactionItemReasonEESt10_Select1stISA_ESt4lessIS5_ESaISA_EE8_M_eraseEPSt13_Rb_tree_nodeISA_E@Base 0.35.3
 _ZNSt8_Rb_treeINSt7__cxx1112basic_stringIcSt11char_traitsIcESaIcEEESt4pairIKS5_S5_ESt10_Select1stIS8_ESt4lessIS5_ESaIS8_EE10_M_insert_IS8_NSE_11_Alloc_nodeEEESt17_Rb_tree_iteratorIS8_EPSt18_Rb_tree_node_baseSK_OT_RT0_@Base 0.35.3
 _ZNSt8_Rb_treeINSt7__cxx1112basic_stringIcSt11char_traitsIcESaIcEEESt4pairIKS5_S5_ESt10_Select1stIS8_ESt4lessIS5_ESaIS8_EE11equal_rangeERS7_@Base 0.35.3
 _ZNSt8_Rb_treeINSt7__cxx1112basic_stringIcSt11char_traitsIcESaIcEEESt4pairIKS5_S5_ESt10_Select1stIS8_ESt4lessIS5_ESaIS8_EE14_M_insert_nodeEPSt18_Rb_tree_node_baseSG_PSt13_Rb_tree_nodeIS8_E@Base 0.35.3
 _ZNSt8_Rb_treeINSt7__cxx1112basic_stringIcSt11char_traitsIcESaIcEEESt4pairIKS5_S5_ESt10_Select1stIS8_ESt4lessIS5_ESaIS8_EE16_M_insert_uniqueIS8_EES6_ISt17_Rb_tree_iteratorIS8_EbEOT_@Base 0.35.3
 _ZNSt8_Rb_treeINSt7__cxx1112basic_stringIcSt11char_traitsIcESaIcEEESt4pairIKS5_S5_ESt10_Select1stIS8_ESt4lessIS5_ESaIS8_EE17_M_emplace_uniqueIJRPcSH_EEES6_ISt17_Rb_tree_iteratorIS8_EbEDpOT_@Base 0.35.3
 _ZNSt8_Rb_treeINSt7__cxx1112basic_stringIcSt11char_traitsIcESaIcEEESt4pairIKS5_S5_ESt10_Select1stIS8_ESt4lessIS5_ESaIS8_EE17_M_emplace_uniqueIJRS7_SG_EEES6_ISt17_Rb_tree_iteratorIS8_EbEDpOT_@Base 0.35.3
 _ZNSt8_Rb_treeINSt7__cxx1112basic_stringIcSt11char_traitsIcESaIcEEESt4pairIKS5_S5_ESt10_Select1stIS8_ESt4lessIS5_ESaIS8_EE22_M_emplace_hint_uniqueIJRKSt21piecewise_construct_tSt5tupleIJOS5_EESJ_IJEEEEESt17_Rb_tree_iteratorIS8_ESt23_Rb_tree_const_iteratorIS8_EDpOT_@Base 0.35.3
 _ZNSt8_Rb_treeINSt7__cxx1112basic_stringIcSt11char_traitsIcESaIcEEESt4pairIKS5_S5_ESt10_Select1stIS8_ESt4lessIS5_ESaIS8_EE22_M_emplace_hint_uniqueIJRKSt21piecewise_construct_tSt5tupleIJRS7_EESJ_IJEEEEESt17_Rb_tree_iteratorIS8_ESt23_Rb_tree_const_iteratorIS8_EDpOT_@Base 0.35.3
 _ZNSt8_Rb_treeINSt7__cxx1112basic_stringIcSt11char_traitsIcESaIcEEESt4pairIKS5_S5_ESt10_Select1stIS8_ESt4lessIS5_ESaIS8_EE24_M_get_insert_unique_posERS7_@Base 0.35.3
 _ZNSt8_Rb_treeINSt7__cxx1112basic_stringIcSt11char_traitsIcESaIcEEESt4pairIKS5_S5_ESt10_Select1stIS8_ESt4lessIS5_ESaIS8_EE29_M_get_insert_hint_unique_posESt23_Rb_tree_const_iteratorIS8_ERS7_@Base 0.35.3
 _ZNSt8_Rb_treeINSt7__cxx1112basic_stringIcSt11char_traitsIcESaIcEEESt4pairIKS5_S5_ESt10_Select1stIS8_ESt4lessIS5_ESaIS8_EE4findERS7_@Base 0.35.3
 _ZNSt8_Rb_treeINSt7__cxx1112basic_stringIcSt11char_traitsIcESaIcEEESt4pairIKS5_S5_ESt10_Select1stIS8_ESt4lessIS5_ESaIS8_EE5eraseERS7_@Base 0.35.3
 _ZNSt8_Rb_treeINSt7__cxx1112basic_stringIcSt11char_traitsIcESaIcEEESt4pairIKS5_S5_ESt10_Select1stIS8_ESt4lessIS5_ESaIS8_EE7_M_copyINSE_11_Alloc_nodeEEEPSt13_Rb_tree_nodeIS8_EPKSI_PSt18_Rb_tree_node_baseRT_@Base 0.35.3
 _ZNSt8_Rb_treeINSt7__cxx1112basic_stringIcSt11char_traitsIcESaIcEEESt4pairIKS5_S5_ESt10_Select1stIS8_ESt4lessIS5_ESaIS8_EE7_M_copyINSE_20_Reuse_or_alloc_nodeEEEPSt13_Rb_tree_nodeIS8_EPKSI_PSt18_Rb_tree_node_baseRT_@Base 0.35.3
 _ZNSt8_Rb_treeINSt7__cxx1112basic_stringIcSt11char_traitsIcESaIcEEESt4pairIKS5_S5_ESt10_Select1stIS8_ESt4lessIS5_ESaIS8_EE8_M_eraseEPSt13_Rb_tree_nodeIS8_E@Base 0.35.3
 _ZNSt8_Rb_treeINSt7__cxx1112basic_stringIcSt11char_traitsIcESaIcEEESt4pairIKS5_S5_ESt10_Select1stIS8_ESt4lessIS5_ESaIS8_EEaSERKSE_@Base 0.35.3
 _ZNSt8_Rb_treeINSt7__cxx1112basic_stringIcSt11char_traitsIcESaIcEEESt4pairIKS5_S6_IN6libdnf12ConfigParserENS8_22ModulePackageContainer4Impl15ModulePersistor6ConfigEEESt10_Select1stISF_ESt4lessIS5_ESaISF_EE17_M_emplace_uniqueIJRS7_SE_EEES6_ISt17_Rb_tree_iteratorISF_EbEDpOT_@Base 0.35.3
 _ZNSt8_Rb_treeINSt7__cxx1112basic_stringIcSt11char_traitsIcESaIcEEESt4pairIKS5_S6_IN6libdnf12ConfigParserENS8_22ModulePackageContainer4Impl15ModulePersistor6ConfigEEESt10_Select1stISF_ESt4lessIS5_ESaISF_EE7_M_copyINSL_11_Alloc_nodeEEEPSt13_Rb_tree_nodeISF_EPKSP_PSt18_Rb_tree_node_baseRT_@Base 0.35.3
 _ZNSt8_Rb_treeINSt7__cxx1112basic_stringIcSt11char_traitsIcESaIcEEESt4pairIKS5_S6_IN6libdnf12ConfigParserENS8_22ModulePackageContainer4Impl15ModulePersistor6ConfigEEESt10_Select1stISF_ESt4lessIS5_ESaISF_EE8_M_eraseEPSt13_Rb_tree_nodeISF_E@Base 0.35.3
 _ZNSt8_Rb_treeINSt7__cxx1112basic_stringIcSt11char_traitsIcESaIcEEESt4pairIKS5_S6_IS5_S5_EESt10_Select1stIS9_ESt4lessIS5_ESaIS9_EE17_M_emplace_uniqueIJRS7_S8_EEES6_ISt17_Rb_tree_iteratorIS9_EbEDpOT_@Base 0.35.3
 _ZNSt8_Rb_treeINSt7__cxx1112basic_stringIcSt11char_traitsIcESaIcEEESt4pairIKS5_S6_IS5_S5_EESt10_Select1stIS9_ESt4lessIS5_ESaIS9_EE8_M_eraseEPSt13_Rb_tree_nodeIS9_E@Base 0.35.3
 _ZNSt8_Rb_treeINSt7__cxx1112basic_stringIcSt11char_traitsIcESaIcEEESt4pairIKS5_S6_IS5_bEESt10_Select1stIS9_ESt4lessIS5_ESaIS9_EE17_M_emplace_uniqueIJRS7_S8_EEES6_ISt17_Rb_tree_iteratorIS9_EbEDpOT_@Base 0.35.3
 _ZNSt8_Rb_treeINSt7__cxx1112basic_stringIcSt11char_traitsIcESaIcEEESt4pairIKS5_S6_IS5_bEESt10_Select1stIS9_ESt4lessIS5_ESaIS9_EE8_M_eraseEPSt13_Rb_tree_nodeIS9_E@Base 0.35.3
 _ZNSt8_Rb_treeINSt7__cxx1112basic_stringIcSt11char_traitsIcESaIcEEESt4pairIKS5_St10shared_ptrIN6libdnf12swdb_private4RepoEEESt10_Select1stISD_ESt4lessIS5_ESaISD_EE22_M_emplace_hint_uniqueIJRKSt21piecewise_construct_tSt5tupleIJRS7_EESO_IJEEEEESt17_Rb_tree_iteratorISD_ESt23_Rb_tree_const_iteratorISD_EDpOT_@Base 0.35.3
 _ZNSt8_Rb_treeINSt7__cxx1112basic_stringIcSt11char_traitsIcESaIcEEESt4pairIKS5_St10shared_ptrIN6libdnf12swdb_private4RepoEEESt10_Select1stISD_ESt4lessIS5_ESaISD_EE24_M_get_insert_unique_posERS7_@Base 0.35.3
 _ZNSt8_Rb_treeINSt7__cxx1112basic_stringIcSt11char_traitsIcESaIcEEESt4pairIKS5_St10shared_ptrIN6libdnf12swdb_private4RepoEEESt10_Select1stISD_ESt4lessIS5_ESaISD_EE29_M_get_insert_hint_unique_posESt23_Rb_tree_const_iteratorISD_ERS7_@Base 0.35.3
 _ZNSt8_Rb_treeINSt7__cxx1112basic_stringIcSt11char_traitsIcESaIcEEESt4pairIKS5_St10shared_ptrIN6libdnf12swdb_private4RepoEEESt10_Select1stISD_ESt4lessIS5_ESaISD_EE8_M_eraseEPSt13_Rb_tree_nodeISD_E@Base 0.35.3
 _ZNSt8_Rb_treeINSt7__cxx1112basic_stringIcSt11char_traitsIcESaIcEEESt4pairIKS5_St10shared_ptrIN6libdnf15TransactionItemEEESt10_Select1stISC_ESt4lessIS5_ESaISC_EE14_M_insert_nodeEPSt18_Rb_tree_node_baseSK_PSt13_Rb_tree_nodeISC_E@Base 0.35.3
 _ZNSt8_Rb_treeINSt7__cxx1112basic_stringIcSt11char_traitsIcESaIcEEESt4pairIKS5_St10shared_ptrIN6libdnf15TransactionItemEEESt10_Select1stISC_ESt4lessIS5_ESaISC_EE22_M_emplace_hint_uniqueIJRKSt21piecewise_construct_tSt5tupleIJRS7_EESN_IJEEEEESt17_Rb_tree_iteratorISC_ESt23_Rb_tree_const_iteratorISC_EDpOT_@Base 0.35.3
 _ZNSt8_Rb_treeINSt7__cxx1112basic_stringIcSt11char_traitsIcESaIcEEESt4pairIKS5_St10shared_ptrIN6libdnf15TransactionItemEEESt10_Select1stISC_ESt4lessIS5_ESaISC_EE24_M_get_insert_unique_posERS7_@Base 0.35.3
 _ZNSt8_Rb_treeINSt7__cxx1112basic_stringIcSt11char_traitsIcESaIcEEESt4pairIKS5_St10shared_ptrIN6libdnf15TransactionItemEEESt10_Select1stISC_ESt4lessIS5_ESaISC_EE29_M_get_insert_hint_unique_posESt23_Rb_tree_const_iteratorISC_ERS7_@Base 0.35.3
 _ZNSt8_Rb_treeINSt7__cxx1112basic_stringIcSt11char_traitsIcESaIcEEESt4pairIKS5_St10shared_ptrIN6libdnf15TransactionItemEEESt10_Select1stISC_ESt4lessIS5_ESaISC_EE8_M_eraseEPSt13_Rb_tree_nodeISC_E@Base 0.35.3
 _ZNSt8_Rb_treeINSt7__cxx1112basic_stringIcSt11char_traitsIcESaIcEEESt4pairIKS5_St10unique_ptrI17_ModulemdDefaultsSt14default_deleteIS9_EEESt10_Select1stISD_ESt4lessIS5_ESaISD_EE17_M_emplace_uniqueIJS6_IS5_SC_EEEES6_ISt17_Rb_tree_iteratorISD_EbEDpOT_@Base 0.35.3
 _ZNSt8_Rb_treeINSt7__cxx1112basic_stringIcSt11char_traitsIcESaIcEEESt4pairIKS5_St10unique_ptrI17_ModulemdDefaultsSt14default_deleteIS9_EEESt10_Select1stISD_ESt4lessIS5_ESaISD_EE4findERS7_@Base 0.35.3
 _ZNSt8_Rb_treeINSt7__cxx1112basic_stringIcSt11char_traitsIcESaIcEEESt4pairIKS5_St10unique_ptrI17_ModulemdDefaultsSt14default_deleteIS9_EEESt10_Select1stISD_ESt4lessIS5_ESaISD_EE8_M_eraseEPSt13_Rb_tree_nodeISD_E@Base 0.35.3
 _ZNSt8_Rb_treeINSt7__cxx1112basic_stringIcSt11char_traitsIcESaIcEEESt4pairIKS5_St6vectorIS5_SaIS5_EEESt10_Select1stISB_ESt4lessIS5_ESaISB_EE17_M_emplace_uniqueIJRS7_SA_EEES6_ISt17_Rb_tree_iteratorISB_EbEDpOT_@Base 0.35.3
 _ZNSt8_Rb_treeINSt7__cxx1112basic_stringIcSt11char_traitsIcESaIcEEESt4pairIKS5_St6vectorIS5_SaIS5_EEESt10_Select1stISB_ESt4lessIS5_ESaISB_EE22_M_emplace_hint_uniqueIJRKSt21piecewise_construct_tSt5tupleIJOS5_EESM_IJEEEEESt17_Rb_tree_iteratorISB_ESt23_Rb_tree_const_iteratorISB_EDpOT_@Base 0.35.3
 _ZNSt8_Rb_treeINSt7__cxx1112basic_stringIcSt11char_traitsIcESaIcEEESt4pairIKS5_St6vectorIS5_SaIS5_EEESt10_Select1stISB_ESt4lessIS5_ESaISB_EE24_M_get_insert_unique_posERS7_@Base 0.35.3
 _ZNSt8_Rb_treeINSt7__cxx1112basic_stringIcSt11char_traitsIcESaIcEEESt4pairIKS5_St6vectorIS5_SaIS5_EEESt10_Select1stISB_ESt4lessIS5_ESaISB_EE29_M_get_insert_hint_unique_posESt23_Rb_tree_const_iteratorISB_ERS7_@Base 0.35.3
 _ZNSt8_Rb_treeINSt7__cxx1112basic_stringIcSt11char_traitsIcESaIcEEESt4pairIKS5_St6vectorIS5_SaIS5_EEESt10_Select1stISB_ESt4lessIS5_ESaISB_EE7_M_copyINSH_11_Alloc_nodeEEEPSt13_Rb_tree_nodeISB_EPKSL_PSt18_Rb_tree_node_baseRT_@Base 0.35.3
 _ZNSt8_Rb_treeINSt7__cxx1112basic_stringIcSt11char_traitsIcESaIcEEESt4pairIKS5_St6vectorIS5_SaIS5_EEESt10_Select1stISB_ESt4lessIS5_ESaISB_EE8_M_eraseEPSt13_Rb_tree_nodeISB_E@Base 0.35.3
 _ZNSt8_Rb_treeINSt7__cxx1112basic_stringIcSt11char_traitsIcESaIcEEESt4pairIKS5_St6vectorISt10shared_ptrIN6libdnf13ModulePackageEESaISC_EEESt10_Select1stISF_ESt4lessIS5_ESaISF_EE8_M_eraseEPSt13_Rb_tree_nodeISF_E@Base 0.35.3
 _ZNSt8_Rb_treeINSt7__cxx1112basic_stringIcSt11char_traitsIcESaIcEEESt4pairIKS5_iESt10_Select1stIS8_ESt4lessIS5_ESaIS8_EE24_M_get_insert_unique_posERS7_@Base 0.35.3
 _ZNSt8_Rb_treeINSt7__cxx1112basic_stringIcSt11char_traitsIcESaIcEEESt4pairIKS5_iESt10_Select1stIS8_ESt4lessIS5_ESaIS8_EE29_M_get_insert_hint_unique_posESt23_Rb_tree_const_iteratorIS8_ERS7_@Base 0.35.3
 _ZNSt8_Rb_treeINSt7__cxx1112basic_stringIcSt11char_traitsIcESaIcEEESt4pairIKS5_iESt10_Select1stIS8_ESt4lessIS5_ESaIS8_EE8_M_eraseEPSt13_Rb_tree_nodeIS8_E@Base 0.35.3
 _ZNSt8_Rb_treeISt10shared_ptrIN6libdnf7RPMItemEES3_St9_IdentityIS3_ESt4lessIS3_ESaIS3_EE24_M_get_insert_unique_posERKS3_@Base 0.35.3
 _ZNSt8_Rb_treeISt10shared_ptrIN6libdnf7RPMItemEES3_St9_IdentityIS3_ESt4lessIS3_ESaIS3_EE29_M_get_insert_hint_unique_posESt23_Rb_tree_const_iteratorIS3_ERKS3_@Base 0.35.3
 _ZNSt8_Rb_treeISt10shared_ptrIN6libdnf7RPMItemEES3_St9_IdentityIS3_ESt4lessIS3_ESaIS3_EE8_M_eraseEPSt13_Rb_tree_nodeIS3_E@Base 0.35.3
 _ZNSt8_Rb_treeIiSt4pairIKiPKcESt10_Select1stIS4_ESt4lessIiESaIS4_EE14_M_insert_nodeEPSt18_Rb_tree_node_baseSC_PSt13_Rb_tree_nodeIS4_E@Base 0.35.3
 _ZNSt8_Rb_treeIiSt4pairIKiPKcESt10_Select1stIS4_ESt4lessIiESaIS4_EE24_M_get_insert_unique_posERS1_@Base 0.35.3
 _ZNSt8_Rb_treeIiSt4pairIKiPKcESt10_Select1stIS4_ESt4lessIiESaIS4_EE29_M_get_insert_hint_unique_posESt23_Rb_tree_const_iteratorIS4_ERS1_@Base 0.35.3
 _ZNSt8_Rb_treeIiSt4pairIKiPKcESt10_Select1stIS4_ESt4lessIiESaIS4_EE7_M_copyINSA_11_Alloc_nodeEEEPSt13_Rb_tree_nodeIS4_EPKSE_PSt18_Rb_tree_node_baseRT_@Base 0.35.3
 _ZNSt8_Rb_treeIiSt4pairIKiPKcESt10_Select1stIS4_ESt4lessIiESaIS4_EE7_M_copyINSA_20_Reuse_or_alloc_nodeEEEPSt13_Rb_tree_nodeIS4_EPKSE_PSt18_Rb_tree_node_baseRT_@Base 0.35.3
 _ZNSt8_Rb_treeIiSt4pairIKiPKcESt10_Select1stIS4_ESt4lessIiESaIS4_EE8_M_eraseEPSt13_Rb_tree_nodeIS4_E@Base 0.35.3
 _ZNSt8_Rb_treeIiSt4pairIKiPKcESt10_Select1stIS4_ESt4lessIiESaIS4_EEaSERKSA_@Base 0.35.3
 _ZNSt8_Rb_treeIiSt4pairIKiSt10unique_ptrIN6libdnf13ModulePackageESt14default_deleteIS4_EEESt10_Select1stIS8_ESt4lessIiESaIS8_EE17_M_emplace_uniqueIJS0_IiS7_EEEES0_ISt17_Rb_tree_iteratorIS8_EbEDpOT_@Base 0.35.3
 _ZNSt8_Rb_treeIiSt4pairIKiSt10unique_ptrIN6libdnf13ModulePackageESt14default_deleteIS4_EEESt10_Select1stIS8_ESt4lessIiESaIS8_EE8_M_eraseEPSt13_Rb_tree_nodeIS8_E@Base 0.35.3
 _ZNSt8_Rb_treeIlSt4pairIKlNSt7__cxx1112basic_stringIcSt11char_traitsIcESaIcEEEESt10_Select1stIS8_ESt4lessIlESaIS8_EE24_M_get_insert_unique_posERS1_@Base 0.35.3
 _ZNSt8_Rb_treeIlSt4pairIKlNSt7__cxx1112basic_stringIcSt11char_traitsIcESaIcEEEESt10_Select1stIS8_ESt4lessIlESaIS8_EE29_M_get_insert_hint_unique_posESt23_Rb_tree_const_iteratorIS8_ERS1_@Base 0.35.3
 _ZNSt8_Rb_treeIlSt4pairIKlNSt7__cxx1112basic_stringIcSt11char_traitsIcESaIcEEEESt10_Select1stIS8_ESt4lessIlESaIS8_EE8_M_eraseEPSt13_Rb_tree_nodeIS8_E@Base 0.35.3
 _ZNSt8_Rb_treeIlSt4pairIKlSt10shared_ptrIN6libdnf15TransactionItemEEESt10_Select1stIS6_ESt4lessIlESaIS6_EE24_M_get_insert_unique_posERS1_@Base 0.35.3
 _ZNSt8_Rb_treeIlSt4pairIKlSt10shared_ptrIN6libdnf15TransactionItemEEESt10_Select1stIS6_ESt4lessIlESaIS6_EE29_M_get_insert_hint_unique_posESt23_Rb_tree_const_iteratorIS6_ERS1_@Base 0.35.3
 _ZNSt8_Rb_treeIlSt4pairIKlSt10shared_ptrIN6libdnf15TransactionItemEEESt10_Select1stIS6_ESt4lessIlESaIS6_EE8_M_eraseEPSt13_Rb_tree_nodeIS6_E@Base 0.35.3
 _ZNSt8functionIFRKNSt7__cxx1112basic_stringIcSt11char_traitsIcESaIcEEEvEEC1ERKS9_@Base 0.35.3
 _ZNSt8functionIFRKNSt7__cxx1112basic_stringIcSt11char_traitsIcESaIcEEEvEEC2ERKS9_@Base 0.35.3
 _ZNSt8functionIFvN6libdnf6Option8PriorityERKNSt7__cxx1112basic_stringIcSt11char_traitsIcESaIcEEEEEC1ERKSC_@Base 0.35.3
 _ZNSt8functionIFvN6libdnf6Option8PriorityERKNSt7__cxx1112basic_stringIcSt11char_traitsIcESaIcEEEEEC2ERKSC_@Base 0.35.3
 _ZSt11__make_heapIN9__gnu_cxx17__normal_iteratorIPNSt7__cxx1112basic_stringIcSt11char_traitsIcESaIcEEESt6vectorIS7_SaIS7_EEEENS0_5__ops15_Iter_less_iterEEvT_SF_RT0_@Base 0.35.3
 _ZSt13__adjust_heapIN9__gnu_cxx17__normal_iteratorIPN6libdnf11AdvisoryPkgESt6vectorIS3_SaIS3_EEEElS3_NS0_5__ops15_Iter_comp_iterIPFbRKS3_SC_EEEEvT_T0_SH_T1_T2_@Base 0.35.3
 _ZSt13__adjust_heapIN9__gnu_cxx17__normal_iteratorIPN6libdnf7NevraIDESt6vectorIS3_SaIS3_EEEElS3_NS0_5__ops15_Iter_comp_iterIPFbRKS3_SC_EEEEvT_T0_SH_T1_T2_@Base 0.35.3
 _ZSt13__adjust_heapIN9__gnu_cxx17__normal_iteratorIPNSt7__cxx1112basic_stringIcSt11char_traitsIcESaIcEEESt6vectorIS7_SaIS7_EEEElS7_NS0_5__ops15_Iter_less_iterEEvT_T0_SG_T1_T2_@Base 0.35.3
 _ZSt13__adjust_heapIN9__gnu_cxx17__normal_iteratorIPiSt6vectorIiSaIiEEEEliNS0_5__ops15_Iter_less_iterEEvT_T0_SA_T1_T2_@Base 0.35.3
 _ZSt13__adjust_heapIN9__gnu_cxx17__normal_iteratorIPlSt6vectorIlSaIlEEEEllNS0_5__ops15_Iter_less_iterEEvT_T0_SA_T1_T2_@Base 0.35.3
 _ZSt13__lower_boundIN9__gnu_cxx17__normal_iteratorIPN6libdnf11AdvisoryPkgESt6vectorIS3_SaIS3_EEEE9_SolvableNS0_5__ops14_Iter_comp_valIPFbRKS3_RKS9_EEEET_SJ_SJ_RKT0_T1_@Base 0.35.3
 _ZSt16__insertion_sortIN9__gnu_cxx17__normal_iteratorIPN6libdnf11AdvisoryPkgESt6vectorIS3_SaIS3_EEEENS0_5__ops15_Iter_comp_iterIPFbRKS3_SC_EEEEvT_SG_T0_@Base 0.35.3
 _ZSt16__insertion_sortIN9__gnu_cxx17__normal_iteratorIPN6libdnf7NevraIDESt6vectorIS3_SaIS3_EEEENS0_5__ops15_Iter_comp_iterIPFbRKS3_SC_EEEEvT_SG_T0_@Base 0.35.3
 _ZSt16__insertion_sortIN9__gnu_cxx17__normal_iteratorIPNSt7__cxx1112basic_stringIcSt11char_traitsIcESaIcEEESt6vectorIS7_SaIS7_EEEENS0_5__ops15_Iter_less_iterEEvT_SF_T0_@Base 0.35.3
 _ZSt16__insertion_sortIN9__gnu_cxx17__normal_iteratorIPiSt6vectorIiSaIiEEEENS0_5__ops15_Iter_less_iterEEvT_S9_T0_@Base 0.35.3
 _ZSt16__insertion_sortIN9__gnu_cxx17__normal_iteratorIPlSt6vectorIlSaIlEEEENS0_5__ops15_Iter_less_iterEEvT_S9_T0_@Base 0.35.3
 _ZSt16__introsort_loopIN9__gnu_cxx17__normal_iteratorIPN6libdnf11AdvisoryPkgESt6vectorIS3_SaIS3_EEEElNS0_5__ops15_Iter_comp_iterIPFbRKS3_SC_EEEEvT_SG_T0_T1_@Base 0.35.3
 _ZSt16__introsort_loopIN9__gnu_cxx17__normal_iteratorIPN6libdnf7NevraIDESt6vectorIS3_SaIS3_EEEElNS0_5__ops15_Iter_comp_iterIPFbRKS3_SC_EEEEvT_SG_T0_T1_@Base 0.35.3
 _ZSt16__introsort_loopIN9__gnu_cxx17__normal_iteratorIPiSt6vectorIiSaIiEEEElNS0_5__ops15_Iter_less_iterEEvT_S9_T0_T1_@Base 0.35.3
 _ZSt16__introsort_loopIN9__gnu_cxx17__normal_iteratorIPlSt6vectorIlSaIlEEEElNS0_5__ops15_Iter_less_iterEEvT_S9_T0_T1_@Base 0.35.3
 _ZSt16__set_differenceIN9__gnu_cxx17__normal_iteratorIPNSt7__cxx1112basic_stringIcSt11char_traitsIcESaIcEEESt6vectorIS7_SaIS7_EEEESC_St20back_insert_iteratorISB_ENS0_5__ops15_Iter_less_iterEET1_T_SI_T0_SJ_SH_T2_@Base 0.35.3
 _ZSt22__final_insertion_sortIN9__gnu_cxx17__normal_iteratorIPN6libdnf11AdvisoryPkgESt6vectorIS3_SaIS3_EEEENS0_5__ops15_Iter_comp_iterIPFbRKS3_SC_EEEEvT_SG_T0_@Base 0.35.3
 _ZSt22__final_insertion_sortIN9__gnu_cxx17__normal_iteratorIPNSt7__cxx1112basic_stringIcSt11char_traitsIcESaIcEEESt6vectorIS7_SaIS7_EEEENS0_5__ops15_Iter_less_iterEEvT_SF_T0_@Base 0.35.3
 _ZSt25__unguarded_linear_insertIN9__gnu_cxx17__normal_iteratorIPN6libdnf11AdvisoryPkgESt6vectorIS3_SaIS3_EEEENS0_5__ops14_Val_comp_iterIPFbRKS3_SC_EEEEvT_T0_@Base 0.35.3
 _ZSt25__unguarded_linear_insertIN9__gnu_cxx17__normal_iteratorIPNSt7__cxx1112basic_stringIcSt11char_traitsIcESaIcEEESt6vectorIS7_SaIS7_EEEENS0_5__ops14_Val_less_iterEEvT_T0_@Base 0.35.3
 _ZSt3decRSt8ios_base@Base 0.35.3
 _ZSt9__find_ifIN9__gnu_cxx17__normal_iteratorIPKNSt7__cxx1112basic_stringIcSt11char_traitsIcESaIcEEESt6vectorIS7_SaIS7_EEEENS0_5__ops10_Iter_predIPFbRS8_EEEET_SK_SK_T0_St26random_access_iterator_tag@Base 0.35.3
 _ZSt9__find_ifIN9__gnu_cxx17__normal_iteratorIPKNSt7__cxx1112basic_stringIcSt11char_traitsIcESaIcEEESt6vectorIS7_SaIS7_EEEENS0_5__ops16_Iter_equals_valIS8_EEET_SH_SH_T0_St26random_access_iterator_tag@Base 0.35.3
 _ZSt9__find_ifIN9__gnu_cxx17__normal_iteratorIPNSt7__cxx1112basic_stringIcSt11char_traitsIcESaIcEEESt6vectorIS7_SaIS7_EEEENS0_5__ops16_Iter_equals_valIKS7_EEET_SH_SH_T0_St26random_access_iterator_tag@Base 0.35.3
 _ZSt9__find_ifIPKPKcN9__gnu_cxx5__ops16_Iter_equals_valIKNSt7__cxx1112basic_stringIcSt11char_traitsIcESaIcEEEEEET_SF_SF_T0_St26random_access_iterator_tag@Base 0.35.3
 _ZSteqIcEN9__gnu_cxx11__enable_ifIXsrSt9__is_charIT_E7__valueEbE6__typeERKNSt7__cxx1112basic_stringIS3_St11char_traitsIS3_ESaIS3_EEESE_@Base 0.35.3
 _ZStplIcSt11char_traitsIcESaIcEENSt7__cxx1112basic_stringIT_T0_T1_EEOS8_PKS5_@Base 0.35.3
 _ZStplIcSt11char_traitsIcESaIcEENSt7__cxx1112basic_stringIT_T0_T1_EEOS8_S9_@Base 0.35.3
 _ZStplIcSt11char_traitsIcESaIcEENSt7__cxx1112basic_stringIT_T0_T1_EEPKS5_OS8_@Base 0.35.3
 _ZStplIcSt11char_traitsIcESaIcEENSt7__cxx1112basic_stringIT_T0_T1_EEPKS5_RKS8_@Base 0.35.3
 _ZTIFiRKNSt7__cxx1112basic_stringIcSt11char_traitsIcESaIcEEEE@Base 0.35.3
 _ZTIN5Regex16InvalidExceptionE@Base 0.35.3
 _ZTIN5Regex16LibraryExceptionE@Base 0.35.3
 _ZTIN5Regex9ExceptionE@Base 0.35.3
 _ZTIN6libdnf10ConfigMain4Impl10ip_resolveMUlRKNSt7__cxx1112basic_stringIcSt11char_traitsIcESaIcEEEE_E@Base 0.35.3
 _ZTIN6libdnf10ConfigMain4Impl17history_list_viewMUlRKNSt7__cxx1112basic_stringIcSt11char_traitsIcESaIcEEEE_E@Base 0.35.3
 _ZTIN6libdnf10ConfigMain4Impl17installonly_limitMUlRKNSt7__cxx1112basic_stringIcSt11char_traitsIcESaIcEEEE_E@Base 0.35.3
 _ZTIN6libdnf10ConfigMain4Impl17proxy_auth_methodMUlRKNSt7__cxx1112basic_stringIcSt11char_traitsIcESaIcEEEE_E@Base 0.35.3
 _ZTIN6libdnf10ConfigMain4Impl5colorMUlRKNSt7__cxx1112basic_stringIcSt11char_traitsIcESaIcEEEE_E@Base 0.35.3
 _ZTIN6libdnf10ConfigMain4Impl8throttleMUlRKNSt7__cxx1112basic_stringIcSt11char_traitsIcESaIcEEEE_E@Base 0.35.3
 _ZTIN6libdnf10NullLoggerE@Base 0.35.3
 _ZTIN6libdnf10OptionBoolE@Base 0.35.3
 _ZTIN6libdnf10OptionEnumINSt7__cxx1112basic_stringIcSt11char_traitsIcESaIcEEEEE@Base 0.35.3
 _ZTIN6libdnf10OptionPathE@Base 0.35.3
 _ZTIN6libdnf11LrExceptionE@Base 0.35.3
 _ZTIN6libdnf11OptionBinds10OutOfRangeE@Base 0.35.3
 _ZTIN6libdnf11OptionBinds13AlreadyExistsE@Base 0.35.3
 _ZTIN6libdnf11OptionBinds9ExceptionE@Base 0.35.3
 _ZTIN6libdnf11OptionChildINS_10OptionBoolEvEE@Base 0.35.3
 _ZTIN6libdnf11OptionChildINS_10OptionEnumINSt7__cxx1112basic_stringIcSt11char_traitsIcESaIcEEEEEvEE@Base 0.35.3
 _ZTIN6libdnf11OptionChildINS_12OptionNumberIfEEvEE@Base 0.35.3
 _ZTIN6libdnf11OptionChildINS_12OptionNumberIjEEvEE@Base 0.35.3
 _ZTIN6libdnf11OptionChildINS_12OptionStringEvEE@Base 0.35.3
 _ZTIN6libdnf11OptionChildINS_13OptionSecondsEvEE@Base 0.35.3
 _ZTIN6libdnf11OptionChildINS_16OptionStringListEvEE@Base 0.35.3
 _ZTIN6libdnf11TransactionE@Base 0.35.3
 _ZTIN6libdnf11Transformer9ExceptionE@Base 0.35.3
 _ZTIN6libdnf12ConfigParser12CantOpenFileE@Base 0.35.3
 _ZTIN6libdnf12ConfigParser12ParsingErrorE@Base 0.35.3
 _ZTIN6libdnf12ConfigParser13MissingOptionE@Base 0.35.3
 _ZTIN6libdnf12ConfigParser14MissingSectionE@Base 0.35.3
 _ZTIN6libdnf12ConfigParser9ExceptionE@Base 0.35.3
 _ZTIN6libdnf12OptionNumberIfEE@Base 0.35.3
 _ZTIN6libdnf12OptionNumberIiEE@Base 0.35.3
 _ZTIN6libdnf12OptionNumberIjEE@Base 0.35.3
 _ZTIN6libdnf12OptionNumberIlEE@Base 0.35.3
 _ZTIN6libdnf12OptionNumberImEE@Base 0.35.3
 _ZTIN6libdnf12OptionStringE@Base 0.35.3
 _ZTIN6libdnf12swdb_private11TransactionE@Base 0.35.3
 _ZTIN6libdnf13OptionSecondsE@Base 0.35.3
 _ZTIN6libdnf14CompressedFileE@Base 0.35.3
 _ZTIN6libdnf14CompsGroupItemE@Base 0.35.3
 _ZTIN6libdnf15PackageTargetCBE@Base 0.35.3
 _ZTIN6libdnf16OptionStringListE@Base 0.35.3
 _ZTIN6libdnf20CompsEnvironmentItemE@Base 0.35.3
 _ZTIN6libdnf22ModulePackageContainer17NoModuleExceptionE@Base 0.35.3
 _ZTIN6libdnf22ModulePackageContainer30EnableMultipleStreamsExceptionE@Base 0.35.3
 _ZTIN6libdnf22ModulePackageContainer9ExceptionE@Base 0.35.3
 _ZTIN6libdnf22TransformerTransactionE@Base 0.35.3
 _ZTIN6libdnf23ModuleDefaultsContainer16ResolveExceptionE@Base 0.35.3
 _ZTIN6libdnf23ModuleDefaultsContainer17ConflictExceptionE@Base 0.35.3
 _ZTIN6libdnf23ModuleDefaultsContainer9ExceptionE@Base 0.35.3
 _ZTIN6libdnf24LrExceptionWithSourceUrlE@Base 0.35.3
 _ZTIN6libdnf4File11IOExceptionE@Base 0.35.3
 _ZTIN6libdnf4File13OpenExceptionE@Base 0.35.3
 _ZTIN6libdnf4File14CloseExceptionE@Base 0.35.3
 _ZTIN6libdnf4File18NotOpenedExceptionE@Base 0.35.3
 _ZTIN6libdnf4File18ShortReadExceptionE@Base 0.35.3
 _ZTIN6libdnf4FileE@Base 0.35.3
 _ZTIN6libdnf4Goal9ExceptionE@Base 0.35.3
 _ZTIN6libdnf4ItemE@Base 0.35.3
 _ZTIN6libdnf4Repo4Impl11httpHeadersMUlPPcE_E@Base 0.35.3
 _ZTIN6libdnf6LoggerE@Base 0.35.3
 _ZTIN6libdnf6Option11ValueNotSetE@Base 0.35.3
 _ZTIN6libdnf6Option12InvalidValueE@Base 0.35.3
 _ZTIN6libdnf6Option9ExceptionE@Base 0.35.3
 _ZTIN6libdnf6OptionE@Base 0.35.3
 _ZTIN6libdnf6RepoCBE@Base 0.35.3
 _ZTIN6libdnf7PackageE@Base 0.35.3
 _ZTIN6libdnf7RPMItemE@Base 0.35.3
 _ZTIN7SQLite312LibExceptionE@Base 0.35.3
 _ZTIN7SQLite39ExceptionE@Base 0.35.3
 _ZTIN9IniParser10MissingKeyE@Base 0.35.3
 _ZTIN9IniParser12CantOpenFileE@Base 0.35.3
 _ZTIN9IniParser12MissingEqualE@Base 0.35.3
 _ZTIN9IniParser14MissingBracketE@Base 0.35.3
 _ZTIN9IniParser16EmptySectionNameE@Base 0.35.3
 _ZTIN9IniParser16TextAfterSectionE@Base 0.35.3
 _ZTIN9IniParser20MissingSectionHeaderE@Base 0.35.3
 _ZTIN9IniParser23IllegalContinuationLineE@Base 0.35.3
 _ZTIN9IniParser9ExceptionE@Base 0.35.3
 _ZTIPFiRKNSt7__cxx1112basic_stringIcSt11char_traitsIcESaIcEEEE@Base 0.35.3
 _ZTISt11_Mutex_baseILN9__gnu_cxx12_Lock_policyE2EE@Base 0.35.3
 _ZTISt15_Sp_counted_ptrIPN6libdnf6Filter4ImplELN9__gnu_cxx12_Lock_policyE2EE@Base 0.35.3
 _ZTISt16_Sp_counted_baseILN9__gnu_cxx12_Lock_policyE2EE@Base 0.35.3
 _ZTISt19_Sp_counted_deleterIP20_ModulemdPrioritizerPFvPvESaIvELN9__gnu_cxx12_Lock_policyE2EE@Base 0.35.3
 _ZTISt23_Sp_counted_ptr_inplaceI4CellSaIS0_ELN9__gnu_cxx12_Lock_policyE2EE@Base 0.35.3
 _ZTISt23_Sp_counted_ptr_inplaceI4LineSaIS0_ELN9__gnu_cxx12_Lock_policyE2EE@Base 0.35.3
 _ZTISt23_Sp_counted_ptr_inplaceI6ColumnSaIS0_ELN9__gnu_cxx12_Lock_policyE2EE@Base 0.35.3
 _ZTISt23_Sp_counted_ptr_inplaceI7SQLite3SaIS0_ELN9__gnu_cxx12_Lock_policyE2EE@Base 0.35.3
 _ZTISt23_Sp_counted_ptr_inplaceIN6libdnf11TransactionESaIS1_ELN9__gnu_cxx12_Lock_policyE2EE@Base 0.35.3
 _ZTISt23_Sp_counted_ptr_inplaceIN6libdnf12swdb_private4RepoESaIS2_ELN9__gnu_cxx12_Lock_policyE2EE@Base 0.35.3
 _ZTISt23_Sp_counted_ptr_inplaceIN6libdnf14CompressedFileESaIS1_ELN9__gnu_cxx12_Lock_policyE2EE@Base 0.35.3
 _ZTISt23_Sp_counted_ptr_inplaceIN6libdnf14CompsGroupItemESaIS1_ELN9__gnu_cxx12_Lock_policyE2EE@Base 0.35.3
 _ZTISt23_Sp_counted_ptr_inplaceIN6libdnf15TransactionItemESaIS1_ELN9__gnu_cxx12_Lock_policyE2EE@Base 0.35.3
 _ZTISt23_Sp_counted_ptr_inplaceIN6libdnf17CompsGroupPackageESaIS1_ELN9__gnu_cxx12_Lock_policyE2EE@Base 0.35.3
 _ZTISt23_Sp_counted_ptr_inplaceIN6libdnf19DependencyContainerESaIS1_ELN9__gnu_cxx12_Lock_policyE2EE@Base 0.35.3
 _ZTISt23_Sp_counted_ptr_inplaceIN6libdnf20CompsEnvironmentItemESaIS1_ELN9__gnu_cxx12_Lock_policyE2EE@Base 0.35.3
 _ZTISt23_Sp_counted_ptr_inplaceIN6libdnf21CompsEnvironmentGroupESaIS1_ELN9__gnu_cxx12_Lock_policyE2EE@Base 0.35.3
 _ZTISt23_Sp_counted_ptr_inplaceIN6libdnf22TransformerTransactionESaIS1_ELN9__gnu_cxx12_Lock_policyE2EE@Base 0.35.3
 _ZTISt23_Sp_counted_ptr_inplaceIN6libdnf4FileESaIS1_ELN9__gnu_cxx12_Lock_policyE2EE@Base 0.35.3
 _ZTISt23_Sp_counted_ptr_inplaceIN6libdnf7RPMItemESaIS1_ELN9__gnu_cxx12_Lock_policyE2EE@Base 0.35.3
 _ZTSFiRKNSt7__cxx1112basic_stringIcSt11char_traitsIcESaIcEEEE@Base 0.35.3
 _ZTSN5Regex16InvalidExceptionE@Base 0.35.3
 _ZTSN5Regex16LibraryExceptionE@Base 0.35.3
 _ZTSN5Regex9ExceptionE@Base 0.35.3
 _ZTSN6libdnf10ConfigMain4Impl10ip_resolveMUlRKNSt7__cxx1112basic_stringIcSt11char_traitsIcESaIcEEEE_E@Base 0.35.3
 _ZTSN6libdnf10ConfigMain4Impl17history_list_viewMUlRKNSt7__cxx1112basic_stringIcSt11char_traitsIcESaIcEEEE_E@Base 0.35.3
 _ZTSN6libdnf10ConfigMain4Impl17installonly_limitMUlRKNSt7__cxx1112basic_stringIcSt11char_traitsIcESaIcEEEE_E@Base 0.35.3
 _ZTSN6libdnf10ConfigMain4Impl17proxy_auth_methodMUlRKNSt7__cxx1112basic_stringIcSt11char_traitsIcESaIcEEEE_E@Base 0.35.3
 _ZTSN6libdnf10ConfigMain4Impl5colorMUlRKNSt7__cxx1112basic_stringIcSt11char_traitsIcESaIcEEEE_E@Base 0.35.3
 _ZTSN6libdnf10ConfigMain4Impl8throttleMUlRKNSt7__cxx1112basic_stringIcSt11char_traitsIcESaIcEEEE_E@Base 0.35.3
 _ZTSN6libdnf10NullLoggerE@Base 0.35.3
 _ZTSN6libdnf10OptionBoolE@Base 0.35.3
 _ZTSN6libdnf10OptionEnumINSt7__cxx1112basic_stringIcSt11char_traitsIcESaIcEEEEE@Base 0.35.3
 _ZTSN6libdnf10OptionPathE@Base 0.35.3
 _ZTSN6libdnf11LrExceptionE@Base 0.35.3
 _ZTSN6libdnf11OptionBinds10OutOfRangeE@Base 0.35.3
 _ZTSN6libdnf11OptionBinds13AlreadyExistsE@Base 0.35.3
 _ZTSN6libdnf11OptionBinds9ExceptionE@Base 0.35.3
 _ZTSN6libdnf11OptionChildINS_10OptionBoolEvEE@Base 0.35.3
 _ZTSN6libdnf11OptionChildINS_10OptionEnumINSt7__cxx1112basic_stringIcSt11char_traitsIcESaIcEEEEEvEE@Base 0.35.3
 _ZTSN6libdnf11OptionChildINS_12OptionNumberIfEEvEE@Base 0.35.3
 _ZTSN6libdnf11OptionChildINS_12OptionNumberIjEEvEE@Base 0.35.3
 _ZTSN6libdnf11OptionChildINS_12OptionStringEvEE@Base 0.35.3
 _ZTSN6libdnf11OptionChildINS_13OptionSecondsEvEE@Base 0.35.3
 _ZTSN6libdnf11OptionChildINS_16OptionStringListEvEE@Base 0.35.3
 _ZTSN6libdnf11TransactionE@Base 0.35.3
 _ZTSN6libdnf11Transformer9ExceptionE@Base 0.35.3
 _ZTSN6libdnf12ConfigParser12CantOpenFileE@Base 0.35.3
 _ZTSN6libdnf12ConfigParser12ParsingErrorE@Base 0.35.3
 _ZTSN6libdnf12ConfigParser13MissingOptionE@Base 0.35.3
 _ZTSN6libdnf12ConfigParser14MissingSectionE@Base 0.35.3
 _ZTSN6libdnf12ConfigParser9ExceptionE@Base 0.35.3
 _ZTSN6libdnf12OptionNumberIfEE@Base 0.35.3
 _ZTSN6libdnf12OptionNumberIiEE@Base 0.35.3
 _ZTSN6libdnf12OptionNumberIjEE@Base 0.35.3
 _ZTSN6libdnf12OptionNumberIlEE@Base 0.35.3
 _ZTSN6libdnf12OptionNumberImEE@Base 0.35.3
 _ZTSN6libdnf12OptionStringE@Base 0.35.3
 _ZTSN6libdnf12swdb_private11TransactionE@Base 0.35.3
 _ZTSN6libdnf13OptionSecondsE@Base 0.35.3
 _ZTSN6libdnf14CompressedFileE@Base 0.35.3
 _ZTSN6libdnf14CompsGroupItemE@Base 0.35.3
 _ZTSN6libdnf15PackageTargetCBE@Base 0.35.3
 _ZTSN6libdnf16OptionStringListE@Base 0.35.3
 _ZTSN6libdnf20CompsEnvironmentItemE@Base 0.35.3
 _ZTSN6libdnf22ModulePackageContainer17NoModuleExceptionE@Base 0.35.3
 _ZTSN6libdnf22ModulePackageContainer30EnableMultipleStreamsExceptionE@Base 0.35.3
 _ZTSN6libdnf22ModulePackageContainer9ExceptionE@Base 0.35.3
 _ZTSN6libdnf22TransformerTransactionE@Base 0.35.3
 _ZTSN6libdnf23ModuleDefaultsContainer16ResolveExceptionE@Base 0.35.3
 _ZTSN6libdnf23ModuleDefaultsContainer17ConflictExceptionE@Base 0.35.3
 _ZTSN6libdnf23ModuleDefaultsContainer9ExceptionE@Base 0.35.3
 _ZTSN6libdnf24LrExceptionWithSourceUrlE@Base 0.35.3
 _ZTSN6libdnf4File11IOExceptionE@Base 0.35.3
 _ZTSN6libdnf4File13OpenExceptionE@Base 0.35.3
 _ZTSN6libdnf4File14CloseExceptionE@Base 0.35.3
 _ZTSN6libdnf4File18NotOpenedExceptionE@Base 0.35.3
 _ZTSN6libdnf4File18ShortReadExceptionE@Base 0.35.3
 _ZTSN6libdnf4FileE@Base 0.35.3
 _ZTSN6libdnf4Goal9ExceptionE@Base 0.35.3
 _ZTSN6libdnf4ItemE@Base 0.35.3
 _ZTSN6libdnf4Repo4Impl11httpHeadersMUlPPcE_E@Base 0.35.3
 _ZTSN6libdnf6LoggerE@Base 0.35.3
 _ZTSN6libdnf6Option11ValueNotSetE@Base 0.35.3
 _ZTSN6libdnf6Option12InvalidValueE@Base 0.35.3
 _ZTSN6libdnf6Option9ExceptionE@Base 0.35.3
 _ZTSN6libdnf6OptionE@Base 0.35.3
 _ZTSN6libdnf6RepoCBE@Base 0.35.3
 _ZTSN6libdnf7PackageE@Base 0.35.3
 _ZTSN6libdnf7RPMItemE@Base 0.35.3
 _ZTSN7SQLite312LibExceptionE@Base 0.35.3
 _ZTSN7SQLite39ExceptionE@Base 0.35.3
 _ZTSN9IniParser10MissingKeyE@Base 0.35.3
 _ZTSN9IniParser12CantOpenFileE@Base 0.35.3
 _ZTSN9IniParser12MissingEqualE@Base 0.35.3
 _ZTSN9IniParser14MissingBracketE@Base 0.35.3
 _ZTSN9IniParser16EmptySectionNameE@Base 0.35.3
 _ZTSN9IniParser16TextAfterSectionE@Base 0.35.3
 _ZTSN9IniParser20MissingSectionHeaderE@Base 0.35.3
 _ZTSN9IniParser23IllegalContinuationLineE@Base 0.35.3
 _ZTSN9IniParser9ExceptionE@Base 0.35.3
 _ZTSPFiRKNSt7__cxx1112basic_stringIcSt11char_traitsIcESaIcEEEE@Base 0.35.3
 _ZTSPFvPvE@Base 0.35.3
 _ZTSSt11_Mutex_baseILN9__gnu_cxx12_Lock_policyE2EE@Base 0.35.3
 _ZTSSt15_Sp_counted_ptrIPN6libdnf6Filter4ImplELN9__gnu_cxx12_Lock_policyE2EE@Base 0.35.3
 _ZTSSt16_Sp_counted_baseILN9__gnu_cxx12_Lock_policyE2EE@Base 0.35.3
 _ZTSSt19_Sp_counted_deleterIP20_ModulemdPrioritizerPFvPvESaIvELN9__gnu_cxx12_Lock_policyE2EE@Base 0.35.3
 _ZTSSt19_Sp_make_shared_tag@Base 0.35.3
 _ZTSSt23_Sp_counted_ptr_inplaceI4CellSaIS0_ELN9__gnu_cxx12_Lock_policyE2EE@Base 0.35.3
 _ZTSSt23_Sp_counted_ptr_inplaceI4LineSaIS0_ELN9__gnu_cxx12_Lock_policyE2EE@Base 0.35.3
 _ZTSSt23_Sp_counted_ptr_inplaceI6ColumnSaIS0_ELN9__gnu_cxx12_Lock_policyE2EE@Base 0.35.3
 _ZTSSt23_Sp_counted_ptr_inplaceI7SQLite3SaIS0_ELN9__gnu_cxx12_Lock_policyE2EE@Base 0.35.3
 _ZTSSt23_Sp_counted_ptr_inplaceIN6libdnf11TransactionESaIS1_ELN9__gnu_cxx12_Lock_policyE2EE@Base 0.35.3
 _ZTSSt23_Sp_counted_ptr_inplaceIN6libdnf12swdb_private4RepoESaIS2_ELN9__gnu_cxx12_Lock_policyE2EE@Base 0.35.3
 _ZTSSt23_Sp_counted_ptr_inplaceIN6libdnf14CompressedFileESaIS1_ELN9__gnu_cxx12_Lock_policyE2EE@Base 0.35.3
 _ZTSSt23_Sp_counted_ptr_inplaceIN6libdnf14CompsGroupItemESaIS1_ELN9__gnu_cxx12_Lock_policyE2EE@Base 0.35.3
 _ZTSSt23_Sp_counted_ptr_inplaceIN6libdnf15TransactionItemESaIS1_ELN9__gnu_cxx12_Lock_policyE2EE@Base 0.35.3
 _ZTSSt23_Sp_counted_ptr_inplaceIN6libdnf17CompsGroupPackageESaIS1_ELN9__gnu_cxx12_Lock_policyE2EE@Base 0.35.3
 _ZTSSt23_Sp_counted_ptr_inplaceIN6libdnf19DependencyContainerESaIS1_ELN9__gnu_cxx12_Lock_policyE2EE@Base 0.35.3
 _ZTSSt23_Sp_counted_ptr_inplaceIN6libdnf20CompsEnvironmentItemESaIS1_ELN9__gnu_cxx12_Lock_policyE2EE@Base 0.35.3
 _ZTSSt23_Sp_counted_ptr_inplaceIN6libdnf21CompsEnvironmentGroupESaIS1_ELN9__gnu_cxx12_Lock_policyE2EE@Base 0.35.3
 _ZTSSt23_Sp_counted_ptr_inplaceIN6libdnf22TransformerTransactionESaIS1_ELN9__gnu_cxx12_Lock_policyE2EE@Base 0.35.3
 _ZTSSt23_Sp_counted_ptr_inplaceIN6libdnf4FileESaIS1_ELN9__gnu_cxx12_Lock_policyE2EE@Base 0.35.3
 _ZTSSt23_Sp_counted_ptr_inplaceIN6libdnf7RPMItemESaIS1_ELN9__gnu_cxx12_Lock_policyE2EE@Base 0.35.3
 _ZTVN5Regex16InvalidExceptionE@Base 0.35.3
 _ZTVN5Regex16LibraryExceptionE@Base 0.35.3
 _ZTVN5Regex9ExceptionE@Base 0.35.3
 _ZTVN6libdnf10NullLoggerE@Base 0.35.3
 _ZTVN6libdnf10OptionBoolE@Base 0.35.3
 _ZTVN6libdnf10OptionEnumINSt7__cxx1112basic_stringIcSt11char_traitsIcESaIcEEEEE@Base 0.35.3
 _ZTVN6libdnf10OptionPathE@Base 0.35.3
 _ZTVN6libdnf11LrExceptionE@Base 0.35.3
 _ZTVN6libdnf11OptionBinds10OutOfRangeE@Base 0.35.3
 _ZTVN6libdnf11OptionBinds13AlreadyExistsE@Base 0.35.3
 _ZTVN6libdnf11OptionBinds9ExceptionE@Base 0.35.3
 _ZTVN6libdnf11OptionChildINS_10OptionBoolEvEE@Base 0.35.3
 _ZTVN6libdnf11OptionChildINS_10OptionEnumINSt7__cxx1112basic_stringIcSt11char_traitsIcESaIcEEEEEvEE@Base 0.35.3
 _ZTVN6libdnf11OptionChildINS_12OptionNumberIfEEvEE@Base 0.35.3
 _ZTVN6libdnf11OptionChildINS_12OptionNumberIjEEvEE@Base 0.35.3
 _ZTVN6libdnf11OptionChildINS_12OptionStringEvEE@Base 0.35.3
 _ZTVN6libdnf11OptionChildINS_13OptionSecondsEvEE@Base 0.35.3
 _ZTVN6libdnf11OptionChildINS_16OptionStringListEvEE@Base 0.35.3
 _ZTVN6libdnf11TransactionE@Base 0.35.3
 _ZTVN6libdnf11Transformer9ExceptionE@Base 0.35.3
 _ZTVN6libdnf12ConfigParser12CantOpenFileE@Base 0.35.3
 _ZTVN6libdnf12ConfigParser12ParsingErrorE@Base 0.35.3
 _ZTVN6libdnf12ConfigParser13MissingOptionE@Base 0.35.3
 _ZTVN6libdnf12ConfigParser14MissingSectionE@Base 0.35.3
 _ZTVN6libdnf12ConfigParser9ExceptionE@Base 0.35.3
 _ZTVN6libdnf12OptionNumberIfEE@Base 0.35.3
 _ZTVN6libdnf12OptionNumberIiEE@Base 0.35.3
 _ZTVN6libdnf12OptionNumberIjEE@Base 0.35.3
 _ZTVN6libdnf12OptionNumberIlEE@Base 0.35.3
 _ZTVN6libdnf12OptionNumberImEE@Base 0.35.3
 _ZTVN6libdnf12OptionStringE@Base 0.35.3
 _ZTVN6libdnf12swdb_private11TransactionE@Base 0.35.3
 _ZTVN6libdnf13OptionSecondsE@Base 0.35.3
 _ZTVN6libdnf14CompressedFileE@Base 0.35.3
 _ZTVN6libdnf14CompsGroupItemE@Base 0.35.3
 _ZTVN6libdnf15PackageTargetCBE@Base 0.35.3
 _ZTVN6libdnf16OptionStringListE@Base 0.35.3
 _ZTVN6libdnf20CompsEnvironmentItemE@Base 0.35.3
 _ZTVN6libdnf22ModulePackageContainer17NoModuleExceptionE@Base 0.35.3
 _ZTVN6libdnf22ModulePackageContainer30EnableMultipleStreamsExceptionE@Base 0.35.3
 _ZTVN6libdnf22ModulePackageContainer9ExceptionE@Base 0.35.3
 _ZTVN6libdnf22TransformerTransactionE@Base 0.35.3
 _ZTVN6libdnf23ModuleDefaultsContainer16ResolveExceptionE@Base 0.35.3
 _ZTVN6libdnf23ModuleDefaultsContainer17ConflictExceptionE@Base 0.35.3
 _ZTVN6libdnf23ModuleDefaultsContainer9ExceptionE@Base 0.35.3
 _ZTVN6libdnf24LrExceptionWithSourceUrlE@Base 0.35.3
 _ZTVN6libdnf4File11IOExceptionE@Base 0.35.3
 _ZTVN6libdnf4File13OpenExceptionE@Base 0.35.3
 _ZTVN6libdnf4File14CloseExceptionE@Base 0.35.3
 _ZTVN6libdnf4File18NotOpenedExceptionE@Base 0.35.3
 _ZTVN6libdnf4File18ShortReadExceptionE@Base 0.35.3
 _ZTVN6libdnf4FileE@Base 0.35.3
 _ZTVN6libdnf4Goal9ExceptionE@Base 0.35.3
 _ZTVN6libdnf4ItemE@Base 0.35.3
 _ZTVN6libdnf6LoggerE@Base 0.35.3
 _ZTVN6libdnf6Option11ValueNotSetE@Base 0.35.3
 _ZTVN6libdnf6Option12InvalidValueE@Base 0.35.3
 _ZTVN6libdnf6Option9ExceptionE@Base 0.35.3
 _ZTVN6libdnf6OptionE@Base 0.35.3
 _ZTVN6libdnf6RepoCBE@Base 0.35.3
 _ZTVN6libdnf7PackageE@Base 0.35.3
 _ZTVN6libdnf7RPMItemE@Base 0.35.3
 _ZTVN7SQLite312LibExceptionE@Base 0.35.3
 _ZTVN7SQLite39ExceptionE@Base 0.35.3
 _ZTVN9IniParser10MissingKeyE@Base 0.35.3
 _ZTVN9IniParser12CantOpenFileE@Base 0.35.3
 _ZTVN9IniParser12MissingEqualE@Base 0.35.3
 _ZTVN9IniParser14MissingBracketE@Base 0.35.3
 _ZTVN9IniParser16EmptySectionNameE@Base 0.35.3
 _ZTVN9IniParser16TextAfterSectionE@Base 0.35.3
 _ZTVN9IniParser20MissingSectionHeaderE@Base 0.35.3
 _ZTVN9IniParser23IllegalContinuationLineE@Base 0.35.3
 _ZTVN9IniParser9ExceptionE@Base 0.35.3
 _ZTVSt15_Sp_counted_ptrIPN6libdnf6Filter4ImplELN9__gnu_cxx12_Lock_policyE2EE@Base 0.35.3
 _ZTVSt19_Sp_counted_deleterIP20_ModulemdPrioritizerPFvPvESaIvELN9__gnu_cxx12_Lock_policyE2EE@Base 0.35.3
 _ZTVSt23_Sp_counted_ptr_inplaceI4CellSaIS0_ELN9__gnu_cxx12_Lock_policyE2EE@Base 0.35.3
 _ZTVSt23_Sp_counted_ptr_inplaceI4LineSaIS0_ELN9__gnu_cxx12_Lock_policyE2EE@Base 0.35.3
 _ZTVSt23_Sp_counted_ptr_inplaceI6ColumnSaIS0_ELN9__gnu_cxx12_Lock_policyE2EE@Base 0.35.3
 _ZTVSt23_Sp_counted_ptr_inplaceI7SQLite3SaIS0_ELN9__gnu_cxx12_Lock_policyE2EE@Base 0.35.3
 _ZTVSt23_Sp_counted_ptr_inplaceIN6libdnf11TransactionESaIS1_ELN9__gnu_cxx12_Lock_policyE2EE@Base 0.35.3
 _ZTVSt23_Sp_counted_ptr_inplaceIN6libdnf12swdb_private4RepoESaIS2_ELN9__gnu_cxx12_Lock_policyE2EE@Base 0.35.3
 _ZTVSt23_Sp_counted_ptr_inplaceIN6libdnf14CompressedFileESaIS1_ELN9__gnu_cxx12_Lock_policyE2EE@Base 0.35.3
 _ZTVSt23_Sp_counted_ptr_inplaceIN6libdnf14CompsGroupItemESaIS1_ELN9__gnu_cxx12_Lock_policyE2EE@Base 0.35.3
 _ZTVSt23_Sp_counted_ptr_inplaceIN6libdnf15TransactionItemESaIS1_ELN9__gnu_cxx12_Lock_policyE2EE@Base 0.35.3
 _ZTVSt23_Sp_counted_ptr_inplaceIN6libdnf17CompsGroupPackageESaIS1_ELN9__gnu_cxx12_Lock_policyE2EE@Base 0.35.3
 _ZTVSt23_Sp_counted_ptr_inplaceIN6libdnf19DependencyContainerESaIS1_ELN9__gnu_cxx12_Lock_policyE2EE@Base 0.35.3
 _ZTVSt23_Sp_counted_ptr_inplaceIN6libdnf20CompsEnvironmentItemESaIS1_ELN9__gnu_cxx12_Lock_policyE2EE@Base 0.35.3
 _ZTVSt23_Sp_counted_ptr_inplaceIN6libdnf21CompsEnvironmentGroupESaIS1_ELN9__gnu_cxx12_Lock_policyE2EE@Base 0.35.3
 _ZTVSt23_Sp_counted_ptr_inplaceIN6libdnf22TransformerTransactionESaIS1_ELN9__gnu_cxx12_Lock_policyE2EE@Base 0.35.3
 _ZTVSt23_Sp_counted_ptr_inplaceIN6libdnf4FileESaIS1_ELN9__gnu_cxx12_Lock_policyE2EE@Base 0.35.3
 _ZTVSt23_Sp_counted_ptr_inplaceIN6libdnf7RPMItemESaIS1_ELN9__gnu_cxx12_Lock_policyE2EE@Base 0.35.3
 _ZZNSt19_Sp_make_shared_tag5_S_tiEvE5__tag@Base 0.35.3
 b_dmgettext@Base 0.35.3
 b_dnpgettext2@Base 0.35.3
 b_dnpgettext@Base 0.35.3
 b_dpgettext2@Base 0.35.3
 b_dpgettext@Base 0.35.3
 checksum_type2length@Base 0.35.3
 dnf_advisory_compare@Base 0.35.3
 dnf_advisory_free@Base 0.35.3
 dnf_advisory_get_description@Base 0.35.3
 dnf_advisory_get_id@Base 0.35.3
 dnf_advisory_get_kind@Base 0.35.3
 dnf_advisory_get_packages@Base 0.35.3
 dnf_advisory_get_references@Base 0.35.3
 dnf_advisory_get_rights@Base 0.35.3
 dnf_advisory_get_severity@Base 0.35.3
 dnf_advisory_get_title@Base 0.35.3
 dnf_advisory_get_updated@Base 0.35.3
 dnf_advisory_match_bug@Base 0.35.3
 dnf_advisory_match_cve@Base 0.35.3
 dnf_advisory_match_id@Base 0.35.3
 dnf_advisory_match_kind@Base 0.35.3
 dnf_advisory_match_severity@Base 0.35.3
 dnf_advisorypkg_compare@Base 0.35.3
 dnf_advisorypkg_compare_solvable@Base 0.35.3
 dnf_advisorypkg_free@Base 0.35.3
 dnf_advisorypkg_get_arch@Base 0.35.3
 dnf_advisorypkg_get_evr@Base 0.35.3
 dnf_advisorypkg_get_filename@Base 0.35.3
 dnf_advisorypkg_get_name@Base 0.35.3
 dnf_advisoryref_compare@Base 0.35.3
 dnf_advisoryref_free@Base 0.35.3
 dnf_advisoryref_get_id@Base 0.35.3
 dnf_advisoryref_get_kind@Base 0.35.3
 dnf_advisoryref_get_title@Base 0.35.3
 dnf_advisoryref_get_url@Base 0.35.3
 dnf_context_clean_cache@Base 0.35.3
 dnf_context_commit@Base 0.35.3
 dnf_context_get_arch@Base 0.35.3
 dnf_context_get_arch_info@Base 0.35.3
 dnf_context_get_base_arch@Base 0.35.3
 dnf_context_get_cache_age@Base 0.35.3
 dnf_context_get_cache_dir@Base 0.35.3
 dnf_context_get_cache_only@Base 0.35.3
 dnf_context_get_check_disk_space@Base 0.35.3
 dnf_context_get_check_transaction@Base 0.35.3
 dnf_context_get_enable_filelists@Base 0.35.3
 dnf_context_get_goal@Base 0.35.3
 dnf_context_get_http_proxy@Base 0.35.3
 dnf_context_get_install_root@Base 0.35.3
 dnf_context_get_installonly_limit@Base 0.35.3
 dnf_context_get_installonly_pkgs@Base 0.35.3
 dnf_context_get_keep_cache@Base 0.35.3
 dnf_context_get_lock_dir@Base 0.35.3
 dnf_context_get_native_arches@Base 0.35.3
 dnf_context_get_only_trusted@Base 0.35.3
 dnf_context_get_os_info@Base 0.35.3
 dnf_context_get_platform_module@Base 0.35.3
 dnf_context_get_plugins_dir@Base 0.35.3
 dnf_context_get_release_ver@Base 0.35.3
 dnf_context_get_repo_dir@Base 0.35.3
 dnf_context_get_repo_loader@Base 0.35.3
 dnf_context_get_repos@Base 0.35.3
 dnf_context_get_rpm_verbosity@Base 0.35.3
 dnf_context_get_sack@Base 0.35.3
 dnf_context_get_solv_dir@Base 0.35.3
 dnf_context_get_source_root@Base 0.35.3
 dnf_context_get_state@Base 0.35.3
 dnf_context_get_transaction@Base 0.35.3
 dnf_context_get_type@Base 0.35.3
 dnf_context_get_user_agent@Base 0.35.3
 dnf_context_get_vars_dir@Base 0.35.3
 dnf_context_get_write_history@Base 0.35.3
 dnf_context_get_zchunk@Base 0.35.3
 dnf_context_globals_init@Base 0.35.3
 dnf_context_install@Base 0.35.3
 dnf_context_invalidate@Base 0.35.3
 dnf_context_invalidate_full@Base 0.35.3
 dnf_context_new@Base 0.35.3
 dnf_context_plugin_hook@Base 0.35.3
 dnf_context_remove@Base 0.35.3
 dnf_context_repo_disable@Base 0.35.3
 dnf_context_repo_enable@Base 0.35.3
 dnf_context_run@Base 0.35.3
 dnf_context_set_arch@Base 0.35.3
 dnf_context_set_cache_age@Base 0.35.3
 dnf_context_set_cache_dir@Base 0.35.3
 dnf_context_set_cache_only@Base 0.35.3
 dnf_context_set_check_disk_space@Base 0.35.3
 dnf_context_set_check_transaction@Base 0.35.3
 dnf_context_set_enable_filelists@Base 0.35.3
 dnf_context_set_http_proxy@Base 0.35.3
 dnf_context_set_install_root@Base 0.35.3
 dnf_context_set_keep_cache@Base 0.35.3
 dnf_context_set_lock_dir@Base 0.35.3
 dnf_context_set_only_trusted@Base 0.35.3
 dnf_context_set_platform_module@Base 0.35.3
 dnf_context_set_plugins_dir@Base 0.35.3
 dnf_context_set_release_ver@Base 0.35.3
 dnf_context_set_repo_dir@Base 0.35.3
 dnf_context_set_rpm_macro@Base 0.35.3
 dnf_context_set_rpm_verbosity@Base 0.35.3
 dnf_context_set_solv_dir@Base 0.35.3
 dnf_context_set_source_root@Base 0.35.3
 dnf_context_set_user_agent@Base 0.35.3
 dnf_context_set_vars_dir@Base 0.35.3
 dnf_context_set_vendor_cache_dir@Base 0.35.3
 dnf_context_set_vendor_solv_dir@Base 0.35.3
 dnf_context_set_write_history@Base 0.35.3
 dnf_context_set_zchunk@Base 0.35.3
 dnf_context_setup@Base 0.35.3
 dnf_context_setup_enrollments@Base 0.35.3
 dnf_context_setup_sack@Base 0.35.3
 dnf_context_setup_sack_with_flags@Base 0.35.3
 dnf_context_update@Base 0.35.3
 dnf_context_update_all@Base 0.35.3
 dnf_db_ensure_origin_pkg@Base 0.35.3
 dnf_db_ensure_origin_pkglist@Base 0.35.3
 dnf_delete_files_matching@Base 0.35.3
 dnf_ensure_file_unlinked@Base 0.35.3
 dnf_error_quark@Base 0.35.3
 dnf_get_file_contents_allow_noent@Base 0.35.3
 dnf_goal_add_protected@Base 0.35.3
 dnf_goal_depsolve@Base 0.35.3
 dnf_goal_get_packages@Base 0.35.3
 dnf_goal_set_protected@Base 0.35.3
 dnf_keyring_add_public_key@Base 0.35.3
 dnf_keyring_add_public_keys@Base 0.35.3
 dnf_keyring_check_untrusted_file@Base 0.35.3
 dnf_lock_get_state@Base 0.35.3
 dnf_lock_get_type@Base 0.35.3
 dnf_lock_new@Base 0.35.3
 dnf_lock_release@Base 0.35.3
 dnf_lock_release_noerror@Base 0.35.3
 dnf_lock_set_lock_dir@Base 0.35.3
 dnf_lock_take@Base 0.35.3
 dnf_lock_type_to_string@Base 0.35.3
 dnf_package_array_download@Base 0.35.3
 dnf_package_array_get_download_size@Base 0.35.3
 dnf_package_check_filename@Base 0.35.3
 dnf_package_cmp@Base 0.35.3
 dnf_package_download@Base 0.35.3
 dnf_package_evr_cmp@Base 0.35.3
 dnf_package_get_action@Base 0.35.3
 dnf_package_get_advisories@Base 0.35.3
 dnf_package_get_arch@Base 0.35.3
 dnf_package_get_baseurl@Base 0.35.3
 dnf_package_get_buildtime@Base 0.35.3
 dnf_package_get_chksum@Base 0.35.3
 dnf_package_get_conflicts@Base 0.35.3
 dnf_package_get_cost@Base 0.35.3
 dnf_package_get_delta_from_evr@Base 0.35.3
 dnf_package_get_description@Base 0.35.3
 dnf_package_get_downloadsize@Base 0.35.3
 dnf_package_get_enhances@Base 0.35.3
 dnf_package_get_epoch@Base 0.35.3
 dnf_package_get_evr@Base 0.35.3
 dnf_package_get_filename@Base 0.35.3
 dnf_package_get_files@Base 0.35.3
 dnf_package_get_group@Base 0.35.3
 dnf_package_get_hdr_chksum@Base 0.35.3
 dnf_package_get_hdr_end@Base 0.35.3
 dnf_package_get_id@Base 0.35.3
 dnf_package_get_identical@Base 0.35.3
 dnf_package_get_info@Base 0.35.3
 dnf_package_get_installsize@Base 0.35.3
 dnf_package_get_installtime@Base 0.35.3
 dnf_package_get_license@Base 0.35.3
 dnf_package_get_location@Base 0.35.3
 dnf_package_get_medianr@Base 0.35.3
 dnf_package_get_name@Base 0.35.3
 dnf_package_get_nevra@Base 0.35.3
 dnf_package_get_obsoletes@Base 0.35.3
 dnf_package_get_origin@Base 0.35.3
 dnf_package_get_package_id@Base 0.35.3
 dnf_package_get_packager@Base 0.35.3
 dnf_package_get_pkgid@Base 0.35.3
 dnf_package_get_provides@Base 0.35.3
 dnf_package_get_recommends@Base 0.35.3
 dnf_package_get_release@Base 0.35.3
 dnf_package_get_repo@Base 0.35.3
 dnf_package_get_reponame@Base 0.35.3
 dnf_package_get_requires@Base 0.35.3
 dnf_package_get_requires_pre@Base 0.35.3
 dnf_package_get_rpmdbid@Base 0.35.3
 dnf_package_get_size@Base 0.35.3
 dnf_package_get_sourcerpm@Base 0.35.3
 dnf_package_get_suggests@Base 0.35.3
 dnf_package_get_summary@Base 0.35.3
 dnf_package_get_supplements@Base 0.35.3
 dnf_package_get_type@Base 0.35.3
 dnf_package_get_url@Base 0.35.3
 dnf_package_get_user_action@Base 0.35.3
 dnf_package_get_version@Base 0.35.3
 dnf_package_installed@Base 0.35.3
 dnf_package_is_devel@Base 0.35.3
 dnf_package_is_downloaded@Base 0.35.3
 dnf_package_is_gui@Base 0.35.3
 dnf_package_is_installonly@Base 0.35.3
 dnf_package_new@Base 0.35.3
 dnf_package_set_action@Base 0.35.3
 dnf_package_set_filename@Base 0.35.3
 dnf_package_set_info@Base 0.35.3
 dnf_package_set_origin@Base 0.35.3
 dnf_package_set_pkgid@Base 0.35.3
 dnf_package_set_repo@Base 0.35.3
 dnf_package_set_user_action@Base 0.35.3
 dnf_packagedelta_get_baseurl@Base 0.35.3
 dnf_packagedelta_get_chksum@Base 0.35.3
 dnf_packagedelta_get_downloadsize@Base 0.35.3
 dnf_packagedelta_get_location@Base 0.35.3
 dnf_packagedelta_get_type@Base 0.35.3
 dnf_packageset_add@Base 0.35.3
 dnf_packageset_clone@Base 0.35.3
 dnf_packageset_count@Base 0.35.3
 dnf_packageset_free@Base 0.35.3
 dnf_packageset_from_bitmap@Base 0.35.3
 dnf_packageset_get_map@Base 0.35.3
 dnf_packageset_has@Base 0.35.3
 dnf_packageset_new@Base 0.35.3
 dnf_realpath@Base 0.35.3
 dnf_reldep_free@Base 0.35.3
 dnf_reldep_get_id@Base 0.35.3
 dnf_reldep_list_add@Base 0.35.3
 dnf_reldep_list_count@Base 0.35.3
 dnf_reldep_list_extend@Base 0.35.3
 dnf_reldep_list_free@Base 0.35.3
 dnf_reldep_list_index@Base 0.35.3
 dnf_reldep_list_new@Base 0.35.3
 dnf_reldep_new@Base 0.35.3
 dnf_reldep_to_string@Base 0.35.3
 dnf_remove_recursive@Base 0.35.3
 dnf_repo_add_metadata_type_to_download@Base 0.35.3
 dnf_repo_check@Base 0.35.3
 dnf_repo_clean@Base 0.35.3
 dnf_repo_commit@Base 0.35.3
 dnf_repo_download_package@Base 0.35.3
 dnf_repo_download_packages@Base 0.35.3
 dnf_repo_get_cost@Base 0.35.3
 dnf_repo_get_description@Base 0.35.3
 dnf_repo_get_enabled@Base 0.35.3
 dnf_repo_get_exclude_packages@Base 0.35.3
 dnf_repo_get_filename@Base 0.35.3
 dnf_repo_get_filename_md@Base 0.35.3
 dnf_repo_get_gpgcheck@Base 0.35.3
 dnf_repo_get_gpgcheck_md@Base 0.35.3
 dnf_repo_get_hy_repo@Base 0.35.3
 dnf_repo_get_id@Base 0.35.3
 dnf_repo_get_kind@Base 0.35.3
 dnf_repo_get_location@Base 0.35.3
 dnf_repo_get_lr_handle@Base 0.35.3
 dnf_repo_get_lr_result@Base 0.35.3
 dnf_repo_get_metadata_content@Base 0.35.3
 dnf_repo_get_metadata_expire@Base 0.35.3
 dnf_repo_get_module_hotfixes@Base 0.35.3
 dnf_repo_get_n_solvables@Base 0.35.3
 dnf_repo_get_packages@Base 0.35.3
 dnf_repo_get_public_keys@Base 0.35.3
 dnf_repo_get_repo@Base 0.35.3
 dnf_repo_get_required@Base 0.35.3
 dnf_repo_get_timestamp_generated@Base 0.35.3
 dnf_repo_get_type@Base 0.35.3
 dnf_repo_is_devel@Base 0.35.3
 dnf_repo_is_local@Base 0.35.3
 dnf_repo_is_source@Base 0.35.3
 dnf_repo_loader_get_repo_by_id@Base 0.35.3
 dnf_repo_loader_get_repos@Base 0.35.3
 dnf_repo_loader_get_type@Base 0.35.3
 dnf_repo_loader_has_removable_repos@Base 0.35.3
 dnf_repo_loader_new@Base 0.35.3
 dnf_repo_new@Base 0.35.3
 dnf_repo_set_cost@Base 0.35.3
 dnf_repo_set_data@Base 0.35.3
 dnf_repo_set_enabled@Base 0.35.3
 dnf_repo_set_filename@Base 0.35.3
 dnf_repo_set_gpgcheck@Base 0.35.3
 dnf_repo_set_gpgcheck_md@Base 0.35.3
 dnf_repo_set_id@Base 0.35.3
 dnf_repo_set_keyfile@Base 0.35.3
 dnf_repo_set_kind@Base 0.35.3
 dnf_repo_set_location@Base 0.35.3
 dnf_repo_set_location_tmp@Base 0.35.3
 dnf_repo_set_metadata_expire@Base 0.35.3
 dnf_repo_set_module_hotfixes@Base 0.35.3
 dnf_repo_set_packages@Base 0.35.3
 dnf_repo_set_packages_tmp@Base 0.35.3
 dnf_repo_set_required@Base 0.35.3
 dnf_repo_setup@Base 0.35.3
 dnf_repo_update@Base 0.35.3
 dnf_rpmts_add_install_filename@Base 0.35.3
 dnf_rpmts_add_remove_pkg@Base 0.35.3
 dnf_rpmts_look_for_problems@Base 0.35.3
 dnf_sack_add_cmdline_package@Base 0.35.3
 dnf_sack_add_cmdline_package_nochecksum@Base 0.35.3
 dnf_sack_add_excludes@Base 0.35.3
 dnf_sack_add_includes@Base 0.35.3
 dnf_sack_add_module_excludes@Base 0.35.3
 dnf_sack_add_repo@Base 0.35.3
 dnf_sack_add_repos@Base 0.35.3
 dnf_sack_count@Base 0.35.3
 dnf_sack_evr_cmp@Base 0.35.3
 dnf_sack_filter_modules@Base 0.35.3
 dnf_sack_get_all_arch@Base 0.35.3
 dnf_sack_get_cache_dir@Base 0.35.3
 dnf_sack_get_excludes@Base 0.35.3
 dnf_sack_get_includes@Base 0.35.3
 dnf_sack_get_installonly_limit@Base 0.35.3
 dnf_sack_get_module_excludes@Base 0.35.3
 dnf_sack_get_module_includes@Base 0.35.3
 dnf_sack_get_pool@Base 0.35.3
 dnf_sack_get_running_kernel@Base 0.35.3
 dnf_sack_get_type@Base 0.35.3
 dnf_sack_get_use_includes@Base 0.35.3
 dnf_sack_give_cache_fn@Base 0.35.3
 dnf_sack_list_arches@Base 0.35.3
 dnf_sack_load_repo@Base 0.35.3
 dnf_sack_load_system_repo@Base 0.35.3
 dnf_sack_new@Base 0.35.3
 dnf_sack_remove_excludes@Base 0.35.3
 dnf_sack_remove_includes@Base 0.35.3
 dnf_sack_remove_module_excludes@Base 0.35.3
 dnf_sack_repo_enabled@Base 0.35.3
 dnf_sack_reset_excludes@Base 0.35.3
 dnf_sack_reset_includes@Base 0.35.3
 dnf_sack_reset_module_excludes@Base 0.35.3
 dnf_sack_set_all_arch@Base 0.35.3
 dnf_sack_set_arch@Base 0.35.3
 dnf_sack_set_cachedir@Base 0.35.3
 dnf_sack_set_excludes@Base 0.35.3
 dnf_sack_set_includes@Base 0.35.3
 dnf_sack_set_installonly@Base 0.35.3
 dnf_sack_set_installonly_limit@Base 0.35.3
 dnf_sack_set_module_excludes@Base 0.35.3
 dnf_sack_set_module_includes@Base 0.35.3
 dnf_sack_set_rootdir@Base 0.35.3
 dnf_sack_set_use_includes@Base 0.35.3
 dnf_sack_setup@Base 0.35.3
 dnf_state_action_start@Base 0.35.3
 dnf_state_action_stop@Base 0.35.3
 dnf_state_check@Base 0.35.3
 dnf_state_done_real@Base 0.35.3
 dnf_state_finished_real@Base 0.35.3
 dnf_state_get_action@Base 0.35.3
 dnf_state_get_action_hint@Base 0.35.3
 dnf_state_get_allow_cancel@Base 0.35.3
 dnf_state_get_cancellable@Base 0.35.3
 dnf_state_get_child@Base 0.35.3
 dnf_state_get_percentage@Base 0.35.3
 dnf_state_get_speed@Base 0.35.3
 dnf_state_get_type@Base 0.35.3
 dnf_state_new@Base 0.35.3
 dnf_state_release_locks@Base 0.35.3
 dnf_state_reset@Base 0.35.3
 dnf_state_set_allow_cancel@Base 0.35.3
 dnf_state_set_cancellable@Base 0.35.3
 dnf_state_set_enable_profile@Base 0.35.3
 dnf_state_set_number_steps_real@Base 0.35.3
 dnf_state_set_package_progress@Base 0.35.3
 dnf_state_set_percentage@Base 0.35.3
 dnf_state_set_report_progress@Base 0.35.3
 dnf_state_set_speed@Base 0.35.3
 dnf_state_set_steps_real@Base 0.35.3
 dnf_state_take_lock@Base 0.35.3
 dnf_transaction_check_untrusted@Base 0.35.3
 dnf_transaction_commit@Base 0.35.3
 dnf_transaction_depsolve@Base 0.35.3
 dnf_transaction_download@Base 0.35.3
 dnf_transaction_ensure_repo@Base 0.35.3
 dnf_transaction_ensure_repo_list@Base 0.35.3
 dnf_transaction_get_db@Base 0.35.3
 dnf_transaction_get_flags@Base 0.35.3
 dnf_transaction_get_remote_pkgs@Base 0.35.3
 dnf_transaction_get_type@Base 0.35.3
 dnf_transaction_gpgcheck_package@Base 0.35.3
 dnf_transaction_import_keys@Base 0.35.3
 dnf_transaction_new@Base 0.35.3
 dnf_transaction_set_flags@Base 0.35.3
 dnf_transaction_set_repos@Base 0.35.3
 dnf_transaction_set_uid@Base 0.35.3
 find_base_arch@Base 0.35.3
 hookContextTransactionGetGoal@Base 0.35.3
 hookContextTransactionGetState@Base 0.35.3
 hookContextTransactionGetTransaction@Base 0.35.3
 hy_add_filter_extras@Base 0.35.3
 hy_add_filter_nevra_object@Base 0.35.3
 hy_chksum_name@Base 0.35.3
 hy_chksum_str@Base 0.35.3
 hy_chksum_type@Base 0.35.3
 hy_detect_arch@Base 0.35.3
 hy_filter_duplicated@Base 0.35.3
 hy_filter_recent@Base 0.35.3
 hy_goal_broken_dependency_all_pkgs@Base 0.35.3
 hy_goal_clone@Base 0.35.3
 hy_goal_conflict_all_pkgs@Base 0.35.3
 hy_goal_count_problems@Base 0.35.3
 hy_goal_create@Base 0.35.3
 hy_goal_distupgrade@Base 0.35.3
 hy_goal_distupgrade_all@Base 0.35.3
 hy_goal_distupgrade_selector@Base 0.35.3
 hy_goal_downgrade_to@Base 0.35.3
 hy_goal_erase@Base 0.35.3
 hy_goal_erase_flags@Base 0.35.3
 hy_goal_erase_selector_flags@Base 0.35.3
 hy_goal_free@Base 0.35.3
 hy_goal_get_reason@Base 0.35.3
 hy_goal_get_sack@Base 0.35.3
 hy_goal_has_actions@Base 0.35.3
 hy_goal_install@Base 0.35.3
 hy_goal_install_optional@Base 0.35.3
 hy_goal_install_selector@Base 0.35.3
 hy_goal_install_selector_optional@Base 0.35.3
 hy_goal_list_downgrades@Base 0.35.3
 hy_goal_list_erasures@Base 0.35.3
 hy_goal_list_installs@Base 0.35.3
 hy_goal_list_obsoleted@Base 0.35.3
 hy_goal_list_obsoleted_by_package@Base 0.35.3
 hy_goal_list_reinstalls@Base 0.35.3
 hy_goal_list_suggested@Base 0.35.3
 hy_goal_list_unneeded@Base 0.35.3
 hy_goal_list_upgrades@Base 0.35.3
 hy_goal_log_decisions@Base 0.35.3
 hy_goal_req_length@Base 0.35.3
 hy_goal_run_flags@Base 0.35.3
 hy_goal_upgrade_all@Base 0.35.3
 hy_goal_upgrade_selector@Base 0.35.3
 hy_goal_upgrade_to@Base 0.35.3
 hy_goal_userinstalled@Base 0.35.3
 hy_goal_write_debugdata@Base 0.35.3
 hy_query_apply@Base 0.35.3
 hy_query_clear@Base 0.35.3
 hy_query_clone@Base 0.35.3
 hy_query_create@Base 0.35.3
 hy_query_create_flags@Base 0.35.3
 hy_query_difference@Base 0.35.3
 hy_query_filter@Base 0.35.3
 hy_query_filter_downgradable@Base 0.35.3
 hy_query_filter_downgrades@Base 0.35.3
 hy_query_filter_empty@Base 0.35.3
 hy_query_filter_in@Base 0.35.3
 hy_query_filter_latest@Base 0.35.3
 hy_query_filter_latest_per_arch@Base 0.35.3
 hy_query_filter_num@Base 0.35.3
 hy_query_filter_num_in@Base 0.35.3
 hy_query_filter_package_in@Base 0.35.3
 hy_query_filter_provides@Base 0.35.3
 hy_query_filter_provides_in@Base 0.35.3
 hy_query_filter_reldep@Base 0.35.3
 hy_query_filter_reldep_in@Base 0.35.3
 hy_query_filter_upgradable@Base 0.35.3
 hy_query_filter_upgrades@Base 0.35.3
 hy_query_free@Base 0.35.3
 hy_query_from_nevra@Base 0.35.3
 hy_query_get_result@Base 0.35.3
 hy_query_get_sack@Base 0.35.3
 hy_query_intersection@Base 0.35.3
 hy_query_is_applied@Base 0.35.3
 hy_query_is_empty@Base 0.35.3
 hy_query_run@Base 0.35.3
 hy_query_run_set@Base 0.35.3
 hy_query_union@Base 0.35.3
 hy_repo_create@Base 0.35.3
 hy_repo_free@Base 0.35.3
 hy_repo_get_cost@Base 0.35.3
 hy_repo_get_n_solvables@Base 0.35.3
 hy_repo_get_priority@Base 0.35.3
 hy_repo_get_string@Base 0.35.3
 hy_repo_get_use_includes@Base 0.35.3
 hy_repo_set_cost@Base 0.35.3
 hy_repo_set_priority@Base 0.35.3
 hy_repo_set_string@Base 0.35.3
 hy_repo_set_use_includes@Base 0.35.3
 hy_selector_create@Base 0.35.3
 hy_selector_free@Base 0.35.3
 hy_selector_matches@Base 0.35.3
 hy_selector_pkg_set@Base 0.35.3
 hy_selector_set@Base 0.35.3
 hy_split_nevra@Base 0.35.3
 hy_subject_create@Base 0.35.3
 hy_subject_free@Base 0.35.3
 hy_subject_get_best_selector@Base 0.35.3
 hy_subject_get_best_solution@Base 0.35.3
 pluginGetContext@Base 0.35.3
 query_get_index_item@Base 0.35.3
